Archive member included because of file (symbol)

/alps/mprelease/MPload/ALPS.JB9.MP.V1.4_WINGTECH92_WET_JB9/source/alps.test/mediatek/platform/mt6592/preloader/src/SecLib.a(seclib_boot.o)
                              /alps/mprelease/MPload/ALPS.JB9.MP.V1.4_WINGTECH92_WET_JB9/source/alps.test/mediatek/preloader/out/sec_boot.o (seclib_sec_boot_enabled)
/alps/mprelease/MPload/ALPS.JB9.MP.V1.4_WINGTECH92_WET_JB9/source/alps.test/mediatek/platform/mt6592/preloader/src/SecLib.a(seclib_dl.o)
                              /alps/mprelease/MPload/ALPS.JB9.MP.V1.4_WINGTECH92_WET_JB9/source/alps.test/mediatek/preloader/out/download.o (seclib_sec_usbdl_enabled)
/alps/mprelease/MPload/ALPS.JB9.MP.V1.4_WINGTECH92_WET_JB9/source/alps.test/mediatek/platform/mt6592/preloader/src/SecLib.a(seclib_img_hash.o)
                              /alps/mprelease/MPload/ALPS.JB9.MP.V1.4_WINGTECH92_WET_JB9/source/alps.test/mediatek/preloader/out/sec_auth.o (seclib_image_hash_compute)
/alps/mprelease/MPload/ALPS.JB9.MP.V1.4_WINGTECH92_WET_JB9/source/alps.test/mediatek/platform/mt6592/preloader/src/SecLib.a(seclib_img_verify.o)
                              /alps/mprelease/MPload/ALPS.JB9.MP.V1.4_WINGTECH92_WET_JB9/source/alps.test/mediatek/platform/mt6592/preloader/src/SecLib.a(seclib_boot.o) (seclib_image_verify)
/alps/mprelease/MPload/ALPS.JB9.MP.V1.4_WINGTECH92_WET_JB9/source/alps.test/mediatek/platform/mt6592/preloader/src/SecLib.a(seclib_key.o)
                              /alps/mprelease/MPload/ALPS.JB9.MP.V1.4_WINGTECH92_WET_JB9/source/alps.test/mediatek/preloader/out/sec_key.o (seclib_read_sbc_key)
/alps/mprelease/MPload/ALPS.JB9.MP.V1.4_WINGTECH92_WET_JB9/source/alps.test/mediatek/platform/mt6592/preloader/src/SecLib.a(seclib.o)
                              /alps/mprelease/MPload/ALPS.JB9.MP.V1.4_WINGTECH92_WET_JB9/source/alps.test/mediatek/platform/mt6592/preloader/src/SecLib.a(seclib_boot.o) (g_cust)
/alps/mprelease/MPload/ALPS.JB9.MP.V1.4_WINGTECH92_WET_JB9/source/alps.test/mediatek/platform/mt6592/preloader/src/SecLib.a(seclib_secroimg.o)
                              /alps/mprelease/MPload/ALPS.JB9.MP.V1.4_WINGTECH92_WET_JB9/source/alps.test/mediatek/preloader/out/sec_secroimg.o (seclib_secroimg_read)
/alps/mprelease/MPload/ALPS.JB9.MP.V1.4_WINGTECH92_WET_JB9/source/alps.test/mediatek/platform/mt6592/preloader/src/SecLib.a(seclib_sej_export.o)
                              /alps/mprelease/MPload/ALPS.JB9.MP.V1.4_WINGTECH92_WET_JB9/source/alps.test/mediatek/platform/mt6592/preloader/src/SecLib.a(seclib.o) (sp_read_swotp)
/alps/mprelease/MPload/ALPS.JB9.MP.V1.4_WINGTECH92_WET_JB9/source/alps.test/mediatek/platform/mt6592/preloader/src/SecLib.a(seclib_util.o)
                              /alps/mprelease/MPload/ALPS.JB9.MP.V1.4_WINGTECH92_WET_JB9/source/alps.test/mediatek/platform/mt6592/preloader/src/SecLib.a(seclib_img_verify.o) (seclib_image_hash_dump)
/alps/mprelease/MPload/ALPS.JB9.MP.V1.4_WINGTECH92_WET_JB9/source/alps.test/mediatek/platform/mt6592/preloader/src/SecLib.a(weak_auth.o)
                              /alps/mprelease/MPload/ALPS.JB9.MP.V1.4_WINGTECH92_WET_JB9/source/alps.test/mediatek/preloader/out/sec_auth.o (seclib_rsa_init)
/alps/mprelease/MPload/ALPS.JB9.MP.V1.4_WINGTECH92_WET_JB9/source/alps.test/mediatek/platform/mt6592/preloader/src/SecLib.a(seccfg_crypto.o)
                              /alps/mprelease/MPload/ALPS.JB9.MP.V1.4_WINGTECH92_WET_JB9/source/alps.test/mediatek/platform/mt6592/preloader/src/SecLib.a(seclib_boot.o) (get_seccfg_cipher_len)
/alps/mprelease/MPload/ALPS.JB9.MP.V1.4_WINGTECH92_WET_JB9/source/alps.test/mediatek/platform/mt6592/preloader/src/security/auth/DaVerifyLib.a(auth.o)
                              /alps/mprelease/MPload/ALPS.JB9.MP.V1.4_WINGTECH92_WET_JB9/source/alps.test/mediatek/preloader/out/sec_auth.o (seclib_mtk_rsa_n_key_len)
/alps/mprelease/MPload/ALPS.JB9.MP.V1.4_WINGTECH92_WET_JB9/source/alps.test/mediatek/platform/mt6592/preloader/src/security/auth/DaVerifyLib.a(bgn_io.o)
                              /alps/mprelease/MPload/ALPS.JB9.MP.V1.4_WINGTECH92_WET_JB9/source/alps.test/mediatek/platform/mt6592/preloader/src/security/auth/DaVerifyLib.a(auth.o) (bgn_read_str)
/alps/mprelease/MPload/ALPS.JB9.MP.V1.4_WINGTECH92_WET_JB9/source/alps.test/mediatek/platform/mt6592/preloader/src/security/auth/DaVerifyLib.a(bgn_util.o)
                              /alps/mprelease/MPload/ALPS.JB9.MP.V1.4_WINGTECH92_WET_JB9/source/alps.test/mediatek/platform/mt6592/preloader/src/security/auth/DaVerifyLib.a(bgn_io.o) (bgn_grow)
/alps/mprelease/MPload/ALPS.JB9.MP.V1.4_WINGTECH92_WET_JB9/source/alps.test/mediatek/platform/mt6592/preloader/src/security/auth/DaVerifyLib.a(rsa.o)
                              /alps/mprelease/MPload/ALPS.JB9.MP.V1.4_WINGTECH92_WET_JB9/source/alps.test/mediatek/platform/mt6592/preloader/src/security/auth/DaVerifyLib.a(auth.o) (rsa_verify)
/alps/mprelease/MPload/ALPS.JB9.MP.V1.4_WINGTECH92_WET_JB9/source/alps.test/mediatek/platform/mt6592/preloader/src/security/auth/DaVerifyLib.a(sha1.o)
                              /alps/mprelease/MPload/ALPS.JB9.MP.V1.4_WINGTECH92_WET_JB9/source/alps.test/mediatek/platform/mt6592/preloader/src/SecLib.a(seclib_img_hash.o) (sha1)
/alps/mprelease/MPload/ALPS.JB9.MP.V1.4_WINGTECH92_WET_JB9/source/alps.test/mediatek/platform/mt6592/preloader/src/security/auth/DaVerifyLib.a(stdlib.o)
                              /alps/mprelease/MPload/ALPS.JB9.MP.V1.4_WINGTECH92_WET_JB9/source/alps.test/mediatek/platform/mt6592/preloader/src/security/auth/DaVerifyLib.a(bgn_util.o) (malloc)
/alps/mprelease/MPload/ALPS.JB9.MP.V1.4_WINGTECH92_WET_JB9/source/alps.test/mediatek/platform/mt6592/preloader/src/security/auth/DaVerifyLib.a(bgn_core.o)
                              /alps/mprelease/MPload/ALPS.JB9.MP.V1.4_WINGTECH92_WET_JB9/source/alps.test/mediatek/platform/mt6592/preloader/src/security/auth/DaVerifyLib.a(bgn_io.o) (bgn_init)
/alps/mprelease/MPload/ALPS.JB9.MP.V1.4_WINGTECH92_WET_JB9/source/alps.test/mediatek/platform/mt6592/preloader/src/security/auth/DaVerifyLib.a(montg.o)
                              /alps/mprelease/MPload/ALPS.JB9.MP.V1.4_WINGTECH92_WET_JB9/source/alps.test/mediatek/platform/mt6592/preloader/src/security/auth/DaVerifyLib.a(bgn_core.o) (montg_init)
/alps/mprelease/MPload/ALPS.JB9.MP.V1.4_WINGTECH92_WET_JB9/source/alps.test/mediatek/platform/mt6592/preloader/src/SecPlat.a(efuse.o)
                              /alps/mprelease/MPload/ALPS.JB9.MP.V1.4_WINGTECH92_WET_JB9/source/alps.test/mediatek/preloader/out/download.o (seclib_sbc_enabled)
/alps/mprelease/MPload/ALPS.JB9.MP.V1.4_WINGTECH92_WET_JB9/source/alps.test/mediatek/platform/mt6592/preloader/src/SecPlat.a(meta.o)
                              /alps/mprelease/MPload/ALPS.JB9.MP.V1.4_WINGTECH92_WET_JB9/source/alps.test/mediatek/preloader/out/main.o (seclib_brom_meta_mode)
/alps/mprelease/MPload/ALPS.JB9.MP.V1.4_WINGTECH92_WET_JB9/source/alps.test/mediatek/platform/mt6592/preloader/src/SecPlat.a(seclib_region.o)
                              /alps/mprelease/MPload/ALPS.JB9.MP.V1.4_WINGTECH92_WET_JB9/source/alps.test/mediatek/preloader/out/sec_region.o (seclib_region_check)
/alps/mprelease/MPload/ALPS.JB9.MP.V1.4_WINGTECH92_WET_JB9/source/alps.test/mediatek/platform/mt6592/preloader/src/SecPlat.a(sej_hk.o)
                              /alps/mprelease/MPload/ALPS.JB9.MP.V1.4_WINGTECH92_WET_JB9/source/alps.test/mediatek/platform/mt6592/preloader/src/SecLib.a(seclib_sej_export.o) (SEJ_V3_Init)
/alps/mprelease/MPload/ALPS.JB9.MP.V1.4_WINGTECH92_WET_JB9/source/alps.test/mediatek/platform/mt6592/preloader/src/SecPlat.a(sej_sk.o)
                              /alps/mprelease/MPload/ALPS.JB9.MP.V1.4_WINGTECH92_WET_JB9/source/alps.test/mediatek/platform/mt6592/preloader/src/SecLib.a(seclib_sej_export.o) (sej_set_key)

Discarded input sections

 .text          0x00000000        0x0 /alps/mprelease/MPload/ALPS.JB9.MP.V1.4_WINGTECH92_WET_JB9/source/alps.test/mediatek/preloader/out/addr_trans.o
 .data          0x00000000        0x0 /alps/mprelease/MPload/ALPS.JB9.MP.V1.4_WINGTECH92_WET_JB9/source/alps.test/mediatek/preloader/out/addr_trans.o
 .bss           0x00000000        0x0 /alps/mprelease/MPload/ALPS.JB9.MP.V1.4_WINGTECH92_WET_JB9/source/alps.test/mediatek/preloader/out/addr_trans.o
 .text.virt_to_phys_addr
                0x00000000       0xb4 /alps/mprelease/MPload/ALPS.JB9.MP.V1.4_WINGTECH92_WET_JB9/source/alps.test/mediatek/preloader/out/addr_trans.o
 .text.phys_to_virt_addr
                0x00000000       0x7a /alps/mprelease/MPload/ALPS.JB9.MP.V1.4_WINGTECH92_WET_JB9/source/alps.test/mediatek/preloader/out/addr_trans.o
 .note.GNU-stack
                0x00000000        0x0 /alps/mprelease/MPload/ALPS.JB9.MP.V1.4_WINGTECH92_WET_JB9/source/alps.test/mediatek/preloader/out/addr_trans.o
 .text          0x00000000        0x0 /alps/mprelease/MPload/ALPS.JB9.MP.V1.4_WINGTECH92_WET_JB9/source/alps.test/mediatek/preloader/out/blkdev.o
 .data          0x00000000        0x0 /alps/mprelease/MPload/ALPS.JB9.MP.V1.4_WINGTECH92_WET_JB9/source/alps.test/mediatek/preloader/out/blkdev.o
 .bss           0x00000000        0x0 /alps/mprelease/MPload/ALPS.JB9.MP.V1.4_WINGTECH92_WET_JB9/source/alps.test/mediatek/preloader/out/blkdev.o
 .text.blkdev_bread
                0x00000000        0xc /alps/mprelease/MPload/ALPS.JB9.MP.V1.4_WINGTECH92_WET_JB9/source/alps.test/mediatek/preloader/out/blkdev.o
 .text.blkdev_bwrite
                0x00000000        0xc /alps/mprelease/MPload/ALPS.JB9.MP.V1.4_WINGTECH92_WET_JB9/source/alps.test/mediatek/preloader/out/blkdev.o
 .note.GNU-stack
                0x00000000        0x0 /alps/mprelease/MPload/ALPS.JB9.MP.V1.4_WINGTECH92_WET_JB9/source/alps.test/mediatek/preloader/out/blkdev.o
 .text          0x00000000        0x0 /alps/mprelease/MPload/ALPS.JB9.MP.V1.4_WINGTECH92_WET_JB9/source/alps.test/mediatek/preloader/out/circbuf.o
 .data          0x00000000        0x0 /alps/mprelease/MPload/ALPS.JB9.MP.V1.4_WINGTECH92_WET_JB9/source/alps.test/mediatek/preloader/out/circbuf.o
 .bss           0x00000000        0x0 /alps/mprelease/MPload/ALPS.JB9.MP.V1.4_WINGTECH92_WET_JB9/source/alps.test/mediatek/preloader/out/circbuf.o
 .note.GNU-stack
                0x00000000        0x0 /alps/mprelease/MPload/ALPS.JB9.MP.V1.4_WINGTECH92_WET_JB9/source/alps.test/mediatek/preloader/out/circbuf.o
 .text          0x00000000        0x0 /alps/mprelease/MPload/ALPS.JB9.MP.V1.4_WINGTECH92_WET_JB9/source/alps.test/mediatek/preloader/out/cust_msdc.o
 .data          0x00000000        0x0 /alps/mprelease/MPload/ALPS.JB9.MP.V1.4_WINGTECH92_WET_JB9/source/alps.test/mediatek/preloader/out/cust_msdc.o
 .bss           0x00000000        0x0 /alps/mprelease/MPload/ALPS.JB9.MP.V1.4_WINGTECH92_WET_JB9/source/alps.test/mediatek/preloader/out/cust_msdc.o
 .note.GNU-stack
                0x00000000        0x0 /alps/mprelease/MPload/ALPS.JB9.MP.V1.4_WINGTECH92_WET_JB9/source/alps.test/mediatek/preloader/out/cust_msdc.o
 .text          0x00000000        0x0 /alps/mprelease/MPload/ALPS.JB9.MP.V1.4_WINGTECH92_WET_JB9/source/alps.test/mediatek/preloader/out/custom_emi.o
 .data          0x00000000        0x0 /alps/mprelease/MPload/ALPS.JB9.MP.V1.4_WINGTECH92_WET_JB9/source/alps.test/mediatek/preloader/out/custom_emi.o
 .bss           0x00000000        0x0 /alps/mprelease/MPload/ALPS.JB9.MP.V1.4_WINGTECH92_WET_JB9/source/alps.test/mediatek/preloader/out/custom_emi.o
 .note.GNU-stack
                0x00000000        0x0 /alps/mprelease/MPload/ALPS.JB9.MP.V1.4_WINGTECH92_WET_JB9/source/alps.test/mediatek/preloader/out/custom_emi.o
 .text          0x00000000        0x0 /alps/mprelease/MPload/ALPS.JB9.MP.V1.4_WINGTECH92_WET_JB9/source/alps.test/mediatek/preloader/out/cust_part.o
 .data          0x00000000        0x0 /alps/mprelease/MPload/ALPS.JB9.MP.V1.4_WINGTECH92_WET_JB9/source/alps.test/mediatek/preloader/out/cust_part.o
 .bss           0x00000000        0x0 /alps/mprelease/MPload/ALPS.JB9.MP.V1.4_WINGTECH92_WET_JB9/source/alps.test/mediatek/preloader/out/cust_part.o
 .note.GNU-stack
                0x00000000        0x0 /alps/mprelease/MPload/ALPS.JB9.MP.V1.4_WINGTECH92_WET_JB9/source/alps.test/mediatek/preloader/out/cust_part.o
 .text          0x00000000        0x0 /alps/mprelease/MPload/ALPS.JB9.MP.V1.4_WINGTECH92_WET_JB9/source/alps.test/mediatek/preloader/out/device_apc.o
 .data          0x00000000        0x0 /alps/mprelease/MPload/ALPS.JB9.MP.V1.4_WINGTECH92_WET_JB9/source/alps.test/mediatek/preloader/out/device_apc.o
 .bss           0x00000000        0x0 /alps/mprelease/MPload/ALPS.JB9.MP.V1.4_WINGTECH92_WET_JB9/source/alps.test/mediatek/preloader/out/device_apc.o
 .note.GNU-stack
                0x00000000        0x0 /alps/mprelease/MPload/ALPS.JB9.MP.V1.4_WINGTECH92_WET_JB9/source/alps.test/mediatek/preloader/out/device_apc.o
 .text          0x00000000        0x0 /alps/mprelease/MPload/ALPS.JB9.MP.V1.4_WINGTECH92_WET_JB9/source/alps.test/mediatek/preloader/out/div0.o
 .data          0x00000000        0x0 /alps/mprelease/MPload/ALPS.JB9.MP.V1.4_WINGTECH92_WET_JB9/source/alps.test/mediatek/preloader/out/div0.o
 .bss           0x00000000        0x0 /alps/mprelease/MPload/ALPS.JB9.MP.V1.4_WINGTECH92_WET_JB9/source/alps.test/mediatek/preloader/out/div0.o
 .note.GNU-stack
                0x00000000        0x0 /alps/mprelease/MPload/ALPS.JB9.MP.V1.4_WINGTECH92_WET_JB9/source/alps.test/mediatek/preloader/out/div0.o
 .text          0x00000000        0x0 /alps/mprelease/MPload/ALPS.JB9.MP.V1.4_WINGTECH92_WET_JB9/source/alps.test/mediatek/preloader/out/download.o
 .data          0x00000000        0x0 /alps/mprelease/MPload/ALPS.JB9.MP.V1.4_WINGTECH92_WET_JB9/source/alps.test/mediatek/preloader/out/download.o
 .bss           0x00000000        0x0 /alps/mprelease/MPload/ALPS.JB9.MP.V1.4_WINGTECH92_WET_JB9/source/alps.test/mediatek/preloader/out/download.o
 .note.GNU-stack
                0x00000000        0x0 /alps/mprelease/MPload/ALPS.JB9.MP.V1.4_WINGTECH92_WET_JB9/source/alps.test/mediatek/preloader/out/download.o
 .text          0x00000000        0x0 /alps/mprelease/MPload/ALPS.JB9.MP.V1.4_WINGTECH92_WET_JB9/source/alps.test/mediatek/preloader/out/dram_buffer.o
 .data          0x00000000        0x0 /alps/mprelease/MPload/ALPS.JB9.MP.V1.4_WINGTECH92_WET_JB9/source/alps.test/mediatek/preloader/out/dram_buffer.o
 .bss           0x00000000        0x0 /alps/mprelease/MPload/ALPS.JB9.MP.V1.4_WINGTECH92_WET_JB9/source/alps.test/mediatek/preloader/out/dram_buffer.o
 .note.GNU-stack
                0x00000000        0x0 /alps/mprelease/MPload/ALPS.JB9.MP.V1.4_WINGTECH92_WET_JB9/source/alps.test/mediatek/preloader/out/dram_buffer.o
 .text          0x00000000        0x0 /alps/mprelease/MPload/ALPS.JB9.MP.V1.4_WINGTECH92_WET_JB9/source/alps.test/mediatek/preloader/out/dramc_calib.o
 .data          0x00000000        0x0 /alps/mprelease/MPload/ALPS.JB9.MP.V1.4_WINGTECH92_WET_JB9/source/alps.test/mediatek/preloader/out/dramc_calib.o
 .bss           0x00000000        0x0 /alps/mprelease/MPload/ALPS.JB9.MP.V1.4_WINGTECH92_WET_JB9/source/alps.test/mediatek/preloader/out/dramc_calib.o
 .note.GNU-stack
                0x00000000        0x0 /alps/mprelease/MPload/ALPS.JB9.MP.V1.4_WINGTECH92_WET_JB9/source/alps.test/mediatek/preloader/out/dramc_calib.o
 .text          0x00000000        0x0 /alps/mprelease/MPload/ALPS.JB9.MP.V1.4_WINGTECH92_WET_JB9/source/alps.test/mediatek/preloader/out/dramc_dle_cal.o
 .bss           0x00000000        0x0 /alps/mprelease/MPload/ALPS.JB9.MP.V1.4_WINGTECH92_WET_JB9/source/alps.test/mediatek/preloader/out/dramc_dle_cal.o
 .text.dramc_ta1
                0x00000000       0xd0 /alps/mprelease/MPload/ALPS.JB9.MP.V1.4_WINGTECH92_WET_JB9/source/alps.test/mediatek/preloader/out/dramc_dle_cal.o
 .text.dram_driving_factor_handler
                0x00000000        0x4 /alps/mprelease/MPload/ALPS.JB9.MP.V1.4_WINGTECH92_WET_JB9/source/alps.test/mediatek/preloader/out/dramc_dle_cal.o
 .text.dqso_dly_factor_handler
                0x00000000       0x84 /alps/mprelease/MPload/ALPS.JB9.MP.V1.4_WINGTECH92_WET_JB9/source/alps.test/mediatek/preloader/out/dramc_dle_cal.o
 .text.ett_print_dram_driving
                0x00000000        0x2 /alps/mprelease/MPload/ALPS.JB9.MP.V1.4_WINGTECH92_WET_JB9/source/alps.test/mediatek/preloader/out/dramc_dle_cal.o
 .data.rel.rx_tuning_factors
                0x00000000       0x14 /alps/mprelease/MPload/ALPS.JB9.MP.V1.4_WINGTECH92_WET_JB9/source/alps.test/mediatek/preloader/out/dramc_dle_cal.o
 .data.rel.local.dram_driving_tbl
                0x00000000        0x8 /alps/mprelease/MPload/ALPS.JB9.MP.V1.4_WINGTECH92_WET_JB9/source/alps.test/mediatek/preloader/out/dramc_dle_cal.o
 .data.rel.local.driving_tbl
                0x00000000       0x18 /alps/mprelease/MPload/ALPS.JB9.MP.V1.4_WINGTECH92_WET_JB9/source/alps.test/mediatek/preloader/out/dramc_dle_cal.o
 .note.GNU-stack
                0x00000000        0x0 /alps/mprelease/MPload/ALPS.JB9.MP.V1.4_WINGTECH92_WET_JB9/source/alps.test/mediatek/preloader/out/dramc_dle_cal.o
 .text          0x00000000        0x0 /alps/mprelease/MPload/ALPS.JB9.MP.V1.4_WINGTECH92_WET_JB9/source/alps.test/mediatek/preloader/out/dramc_dqs_gw.o
 .bss           0x00000000        0x0 /alps/mprelease/MPload/ALPS.JB9.MP.V1.4_WINGTECH92_WET_JB9/source/alps.test/mediatek/preloader/out/dramc_dqs_gw.o
 .text.dramc_ta2
                0x00000000      0x18c /alps/mprelease/MPload/ALPS.JB9.MP.V1.4_WINGTECH92_WET_JB9/source/alps.test/mediatek/preloader/out/dramc_dqs_gw.o
 .text.ett_print_dqs_gw_after_finish_loop_n
                0x00000000       0x10 /alps/mprelease/MPload/ALPS.JB9.MP.V1.4_WINGTECH92_WET_JB9/source/alps.test/mediatek/preloader/out/dramc_dqs_gw.o
 .data.rel.dqs_gw_test_cases_2
                0x00000000       0x10 /alps/mprelease/MPload/ALPS.JB9.MP.V1.4_WINGTECH92_WET_JB9/source/alps.test/mediatek/preloader/out/dramc_dqs_gw.o
 .note.GNU-stack
                0x00000000        0x0 /alps/mprelease/MPload/ALPS.JB9.MP.V1.4_WINGTECH92_WET_JB9/source/alps.test/mediatek/preloader/out/dramc_dqs_gw.o
 .data          0x00000000        0x0 /alps/mprelease/MPload/ALPS.JB9.MP.V1.4_WINGTECH92_WET_JB9/source/alps.test/mediatek/preloader/out/eabi_idiv.o
 .bss           0x00000000        0x0 /alps/mprelease/MPload/ALPS.JB9.MP.V1.4_WINGTECH92_WET_JB9/source/alps.test/mediatek/preloader/out/eabi_idiv.o
 .data          0x00000000        0x0 /alps/mprelease/MPload/ALPS.JB9.MP.V1.4_WINGTECH92_WET_JB9/source/alps.test/mediatek/preloader/out/eabi.o
 .bss           0x00000000        0x0 /alps/mprelease/MPload/ALPS.JB9.MP.V1.4_WINGTECH92_WET_JB9/source/alps.test/mediatek/preloader/out/eabi.o
 .data          0x00000000        0x0 /alps/mprelease/MPload/ALPS.JB9.MP.V1.4_WINGTECH92_WET_JB9/source/alps.test/mediatek/preloader/out/eabi_uldivmod.o
 .bss           0x00000000        0x0 /alps/mprelease/MPload/ALPS.JB9.MP.V1.4_WINGTECH92_WET_JB9/source/alps.test/mediatek/preloader/out/eabi_uldivmod.o
 .text          0x00000000        0x0 /alps/mprelease/MPload/ALPS.JB9.MP.V1.4_WINGTECH92_WET_JB9/source/alps.test/mediatek/preloader/out/emi.o
 .data          0x00000000        0x0 /alps/mprelease/MPload/ALPS.JB9.MP.V1.4_WINGTECH92_WET_JB9/source/alps.test/mediatek/preloader/out/emi.o
 .bss           0x00000000        0x0 /alps/mprelease/MPload/ALPS.JB9.MP.V1.4_WINGTECH92_WET_JB9/source/alps.test/mediatek/preloader/out/emi.o
 .text.release_dram
                0x00000000        0x2 /alps/mprelease/MPload/ALPS.JB9.MP.V1.4_WINGTECH92_WET_JB9/source/alps.test/mediatek/preloader/out/emi.o
 .note.GNU-stack
                0x00000000        0x0 /alps/mprelease/MPload/ALPS.JB9.MP.V1.4_WINGTECH92_WET_JB9/source/alps.test/mediatek/preloader/out/emi.o
 .text          0x00000000        0x0 /alps/mprelease/MPload/ALPS.JB9.MP.V1.4_WINGTECH92_WET_JB9/source/alps.test/mediatek/preloader/out/fan5405.o
 .data          0x00000000        0x0 /alps/mprelease/MPload/ALPS.JB9.MP.V1.4_WINGTECH92_WET_JB9/source/alps.test/mediatek/preloader/out/fan5405.o
 .bss           0x00000000        0x0 /alps/mprelease/MPload/ALPS.JB9.MP.V1.4_WINGTECH92_WET_JB9/source/alps.test/mediatek/preloader/out/fan5405.o
 .text.fan5405_write_byte
                0x00000000       0x4c /alps/mprelease/MPload/ALPS.JB9.MP.V1.4_WINGTECH92_WET_JB9/source/alps.test/mediatek/preloader/out/fan5405.o
 .text.fan5405_read_byte
                0x00000000       0x44 /alps/mprelease/MPload/ALPS.JB9.MP.V1.4_WINGTECH92_WET_JB9/source/alps.test/mediatek/preloader/out/fan5405.o
 .text.fan5405_read_interface
                0x00000000       0x64 /alps/mprelease/MPload/ALPS.JB9.MP.V1.4_WINGTECH92_WET_JB9/source/alps.test/mediatek/preloader/out/fan5405.o
 .text.fan5405_config_interface
                0x00000000       0x74 /alps/mprelease/MPload/ALPS.JB9.MP.V1.4_WINGTECH92_WET_JB9/source/alps.test/mediatek/preloader/out/fan5405.o
 .text.fan5405_set_tmr_rst
                0x00000000       0x34 /alps/mprelease/MPload/ALPS.JB9.MP.V1.4_WINGTECH92_WET_JB9/source/alps.test/mediatek/preloader/out/fan5405.o
 .text.fan5405_get_otg_status
                0x00000000       0x38 /alps/mprelease/MPload/ALPS.JB9.MP.V1.4_WINGTECH92_WET_JB9/source/alps.test/mediatek/preloader/out/fan5405.o
 .text.fan5405_set_en_stat
                0x00000000       0x34 /alps/mprelease/MPload/ALPS.JB9.MP.V1.4_WINGTECH92_WET_JB9/source/alps.test/mediatek/preloader/out/fan5405.o
 .text.fan5405_get_chip_status
                0x00000000       0x38 /alps/mprelease/MPload/ALPS.JB9.MP.V1.4_WINGTECH92_WET_JB9/source/alps.test/mediatek/preloader/out/fan5405.o
 .text.fan5405_get_boost_status
                0x00000000       0x38 /alps/mprelease/MPload/ALPS.JB9.MP.V1.4_WINGTECH92_WET_JB9/source/alps.test/mediatek/preloader/out/fan5405.o
 .text.fan5405_get_fault_status
                0x00000000       0x38 /alps/mprelease/MPload/ALPS.JB9.MP.V1.4_WINGTECH92_WET_JB9/source/alps.test/mediatek/preloader/out/fan5405.o
 .text.fan5405_set_input_charging_current
                0x00000000       0x34 /alps/mprelease/MPload/ALPS.JB9.MP.V1.4_WINGTECH92_WET_JB9/source/alps.test/mediatek/preloader/out/fan5405.o
 .text.fan5405_set_v_low
                0x00000000       0x34 /alps/mprelease/MPload/ALPS.JB9.MP.V1.4_WINGTECH92_WET_JB9/source/alps.test/mediatek/preloader/out/fan5405.o
 .text.fan5405_set_te
                0x00000000       0x34 /alps/mprelease/MPload/ALPS.JB9.MP.V1.4_WINGTECH92_WET_JB9/source/alps.test/mediatek/preloader/out/fan5405.o
 .text.fan5405_set_ce
                0x00000000       0x34 /alps/mprelease/MPload/ALPS.JB9.MP.V1.4_WINGTECH92_WET_JB9/source/alps.test/mediatek/preloader/out/fan5405.o
 .text.fan5405_set_hz_mode
                0x00000000       0x34 /alps/mprelease/MPload/ALPS.JB9.MP.V1.4_WINGTECH92_WET_JB9/source/alps.test/mediatek/preloader/out/fan5405.o
 .text.fan5405_set_opa_mode
                0x00000000       0x34 /alps/mprelease/MPload/ALPS.JB9.MP.V1.4_WINGTECH92_WET_JB9/source/alps.test/mediatek/preloader/out/fan5405.o
 .text.fan5405_set_oreg
                0x00000000       0x34 /alps/mprelease/MPload/ALPS.JB9.MP.V1.4_WINGTECH92_WET_JB9/source/alps.test/mediatek/preloader/out/fan5405.o
 .text.fan5405_set_otg_pl
                0x00000000       0x34 /alps/mprelease/MPload/ALPS.JB9.MP.V1.4_WINGTECH92_WET_JB9/source/alps.test/mediatek/preloader/out/fan5405.o
 .text.fan5405_set_otg_en
                0x00000000       0x34 /alps/mprelease/MPload/ALPS.JB9.MP.V1.4_WINGTECH92_WET_JB9/source/alps.test/mediatek/preloader/out/fan5405.o
 .text.fan5405_get_vender_code
                0x00000000       0x38 /alps/mprelease/MPload/ALPS.JB9.MP.V1.4_WINGTECH92_WET_JB9/source/alps.test/mediatek/preloader/out/fan5405.o
 .text.fan5405_get_pn
                0x00000000       0x38 /alps/mprelease/MPload/ALPS.JB9.MP.V1.4_WINGTECH92_WET_JB9/source/alps.test/mediatek/preloader/out/fan5405.o
 .text.fan5405_get_revision
                0x00000000       0x38 /alps/mprelease/MPload/ALPS.JB9.MP.V1.4_WINGTECH92_WET_JB9/source/alps.test/mediatek/preloader/out/fan5405.o
 .text.fan5405_set_reset
                0x00000000       0x34 /alps/mprelease/MPload/ALPS.JB9.MP.V1.4_WINGTECH92_WET_JB9/source/alps.test/mediatek/preloader/out/fan5405.o
 .text.fan5405_set_iocharge
                0x00000000       0x34 /alps/mprelease/MPload/ALPS.JB9.MP.V1.4_WINGTECH92_WET_JB9/source/alps.test/mediatek/preloader/out/fan5405.o
 .text.fan5405_set_iterm
                0x00000000       0x34 /alps/mprelease/MPload/ALPS.JB9.MP.V1.4_WINGTECH92_WET_JB9/source/alps.test/mediatek/preloader/out/fan5405.o
 .text.fan5405_set_dis_vreg
                0x00000000       0x34 /alps/mprelease/MPload/ALPS.JB9.MP.V1.4_WINGTECH92_WET_JB9/source/alps.test/mediatek/preloader/out/fan5405.o
 .text.fan5405_set_io_level
                0x00000000       0x34 /alps/mprelease/MPload/ALPS.JB9.MP.V1.4_WINGTECH92_WET_JB9/source/alps.test/mediatek/preloader/out/fan5405.o
 .text.fan5405_get_sp_status
                0x00000000       0x38 /alps/mprelease/MPload/ALPS.JB9.MP.V1.4_WINGTECH92_WET_JB9/source/alps.test/mediatek/preloader/out/fan5405.o
 .text.fan5405_get_en_level
                0x00000000       0x38 /alps/mprelease/MPload/ALPS.JB9.MP.V1.4_WINGTECH92_WET_JB9/source/alps.test/mediatek/preloader/out/fan5405.o
 .text.fan5405_set_vsp
                0x00000000       0x34 /alps/mprelease/MPload/ALPS.JB9.MP.V1.4_WINGTECH92_WET_JB9/source/alps.test/mediatek/preloader/out/fan5405.o
 .text.fan5405_set_i_safe
                0x00000000       0x34 /alps/mprelease/MPload/ALPS.JB9.MP.V1.4_WINGTECH92_WET_JB9/source/alps.test/mediatek/preloader/out/fan5405.o
 .text.fan5405_set_v_safe
                0x00000000       0x34 /alps/mprelease/MPload/ALPS.JB9.MP.V1.4_WINGTECH92_WET_JB9/source/alps.test/mediatek/preloader/out/fan5405.o
 .text.fan5405_reg_config_interface
                0x00000000       0x2c /alps/mprelease/MPload/ALPS.JB9.MP.V1.4_WINGTECH92_WET_JB9/source/alps.test/mediatek/preloader/out/fan5405.o
 .text.fan5405_dump_register
                0x00000000       0x30 /alps/mprelease/MPload/ALPS.JB9.MP.V1.4_WINGTECH92_WET_JB9/source/alps.test/mediatek/preloader/out/fan5405.o
 .text.fan5405_read_register
                0x00000000       0x2c /alps/mprelease/MPload/ALPS.JB9.MP.V1.4_WINGTECH92_WET_JB9/source/alps.test/mediatek/preloader/out/fan5405.o
 .text.fan5405_hw_init
                0x00000000       0x1c /alps/mprelease/MPload/ALPS.JB9.MP.V1.4_WINGTECH92_WET_JB9/source/alps.test/mediatek/preloader/out/fan5405.o
 .bss.g_fan5405_log_en
                0x00000000        0x4 /alps/mprelease/MPload/ALPS.JB9.MP.V1.4_WINGTECH92_WET_JB9/source/alps.test/mediatek/preloader/out/fan5405.o
 .rodata.__func__.1404
                0x00000000       0x13 /alps/mprelease/MPload/ALPS.JB9.MP.V1.4_WINGTECH92_WET_JB9/source/alps.test/mediatek/preloader/out/fan5405.o
 .bss.fan5405_reg
                0x00000000        0x7 /alps/mprelease/MPload/ALPS.JB9.MP.V1.4_WINGTECH92_WET_JB9/source/alps.test/mediatek/preloader/out/fan5405.o
 .rodata.str1.1
                0x00000000      0x141 /alps/mprelease/MPload/ALPS.JB9.MP.V1.4_WINGTECH92_WET_JB9/source/alps.test/mediatek/preloader/out/fan5405.o
 .rodata.__func__.1411
                0x00000000       0x12 /alps/mprelease/MPload/ALPS.JB9.MP.V1.4_WINGTECH92_WET_JB9/source/alps.test/mediatek/preloader/out/fan5405.o
 .bss.fan5405_i2c
                0x00000000       0x48 /alps/mprelease/MPload/ALPS.JB9.MP.V1.4_WINGTECH92_WET_JB9/source/alps.test/mediatek/preloader/out/fan5405.o
 .note.GNU-stack
                0x00000000        0x0 /alps/mprelease/MPload/ALPS.JB9.MP.V1.4_WINGTECH92_WET_JB9/source/alps.test/mediatek/preloader/out/fan5405.o
 .text          0x00000000        0x0 /alps/mprelease/MPload/ALPS.JB9.MP.V1.4_WINGTECH92_WET_JB9/source/alps.test/mediatek/preloader/out/fpc_sw_repair2sw.o
 .data          0x00000000        0x0 /alps/mprelease/MPload/ALPS.JB9.MP.V1.4_WINGTECH92_WET_JB9/source/alps.test/mediatek/preloader/out/fpc_sw_repair2sw.o
 .bss           0x00000000        0x0 /alps/mprelease/MPload/ALPS.JB9.MP.V1.4_WINGTECH92_WET_JB9/source/alps.test/mediatek/preloader/out/fpc_sw_repair2sw.o
 .text.repair_sram
                0x00000000      0xc0c /alps/mprelease/MPload/ALPS.JB9.MP.V1.4_WINGTECH92_WET_JB9/source/alps.test/mediatek/preloader/out/fpc_sw_repair2sw.o
 .rodata.str1.1
                0x00000000      0x412 /alps/mprelease/MPload/ALPS.JB9.MP.V1.4_WINGTECH92_WET_JB9/source/alps.test/mediatek/preloader/out/fpc_sw_repair2sw.o
 .note.GNU-stack
                0x00000000        0x0 /alps/mprelease/MPload/ALPS.JB9.MP.V1.4_WINGTECH92_WET_JB9/source/alps.test/mediatek/preloader/out/fpc_sw_repair2sw.o
 .text          0x00000000        0x0 /alps/mprelease/MPload/ALPS.JB9.MP.V1.4_WINGTECH92_WET_JB9/source/alps.test/mediatek/preloader/out/gpio.o
 .data          0x00000000        0x0 /alps/mprelease/MPload/ALPS.JB9.MP.V1.4_WINGTECH92_WET_JB9/source/alps.test/mediatek/preloader/out/gpio.o
 .bss           0x00000000        0x0 /alps/mprelease/MPload/ALPS.JB9.MP.V1.4_WINGTECH92_WET_JB9/source/alps.test/mediatek/preloader/out/gpio.o
 .text.mt_get_gpio_dir_chip
                0x00000000       0x30 /alps/mprelease/MPload/ALPS.JB9.MP.V1.4_WINGTECH92_WET_JB9/source/alps.test/mediatek/preloader/out/gpio.o
 .text.mt_get_gpio_pull_enable_chip
                0x00000000       0xbc /alps/mprelease/MPload/ALPS.JB9.MP.V1.4_WINGTECH92_WET_JB9/source/alps.test/mediatek/preloader/out/gpio.o
 .text.mt_get_gpio_pull_select_chip
                0x00000000       0xc0 /alps/mprelease/MPload/ALPS.JB9.MP.V1.4_WINGTECH92_WET_JB9/source/alps.test/mediatek/preloader/out/gpio.o
 .text.mt_set_gpio_out_chip
                0x00000000       0x58 /alps/mprelease/MPload/ALPS.JB9.MP.V1.4_WINGTECH92_WET_JB9/source/alps.test/mediatek/preloader/out/gpio.o
 .text.mt_get_gpio_out_chip
                0x00000000       0x34 /alps/mprelease/MPload/ALPS.JB9.MP.V1.4_WINGTECH92_WET_JB9/source/alps.test/mediatek/preloader/out/gpio.o
 .text.mt_get_gpio_in_chip
                0x00000000       0x34 /alps/mprelease/MPload/ALPS.JB9.MP.V1.4_WINGTECH92_WET_JB9/source/alps.test/mediatek/preloader/out/gpio.o
 .text.mt_get_gpio_mode_chip
                0x00000000       0x38 /alps/mprelease/MPload/ALPS.JB9.MP.V1.4_WINGTECH92_WET_JB9/source/alps.test/mediatek/preloader/out/gpio.o
 .text.mt_get_gpio_dir
                0x00000000       0x18 /alps/mprelease/MPload/ALPS.JB9.MP.V1.4_WINGTECH92_WET_JB9/source/alps.test/mediatek/preloader/out/gpio.o
 .text.mt_get_gpio_pull_enable
                0x00000000       0x18 /alps/mprelease/MPload/ALPS.JB9.MP.V1.4_WINGTECH92_WET_JB9/source/alps.test/mediatek/preloader/out/gpio.o
 .text.mt_get_gpio_pull_select
                0x00000000       0x18 /alps/mprelease/MPload/ALPS.JB9.MP.V1.4_WINGTECH92_WET_JB9/source/alps.test/mediatek/preloader/out/gpio.o
 .text.mt_set_gpio_out
                0x00000000       0x1c /alps/mprelease/MPload/ALPS.JB9.MP.V1.4_WINGTECH92_WET_JB9/source/alps.test/mediatek/preloader/out/gpio.o
 .text.mt_get_gpio_out
                0x00000000       0x18 /alps/mprelease/MPload/ALPS.JB9.MP.V1.4_WINGTECH92_WET_JB9/source/alps.test/mediatek/preloader/out/gpio.o
 .text.mt_get_gpio_in
                0x00000000       0x18 /alps/mprelease/MPload/ALPS.JB9.MP.V1.4_WINGTECH92_WET_JB9/source/alps.test/mediatek/preloader/out/gpio.o
 .text.mt_get_gpio_mode
                0x00000000       0x18 /alps/mprelease/MPload/ALPS.JB9.MP.V1.4_WINGTECH92_WET_JB9/source/alps.test/mediatek/preloader/out/gpio.o
 .note.GNU-stack
                0x00000000        0x0 /alps/mprelease/MPload/ALPS.JB9.MP.V1.4_WINGTECH92_WET_JB9/source/alps.test/mediatek/preloader/out/gpio.o
 .text          0x00000000        0x0 /alps/mprelease/MPload/ALPS.JB9.MP.V1.4_WINGTECH92_WET_JB9/source/alps.test/mediatek/preloader/out/handshake_uart.o
 .bss           0x00000000        0x0 /alps/mprelease/MPload/ALPS.JB9.MP.V1.4_WINGTECH92_WET_JB9/source/alps.test/mediatek/preloader/out/handshake_uart.o
 .note.GNU-stack
                0x00000000        0x0 /alps/mprelease/MPload/ALPS.JB9.MP.V1.4_WINGTECH92_WET_JB9/source/alps.test/mediatek/preloader/out/handshake_uart.o
 .text          0x00000000        0x0 /alps/mprelease/MPload/ALPS.JB9.MP.V1.4_WINGTECH92_WET_JB9/source/alps.test/mediatek/preloader/out/handshake_usb.o
 .bss           0x00000000        0x0 /alps/mprelease/MPload/ALPS.JB9.MP.V1.4_WINGTECH92_WET_JB9/source/alps.test/mediatek/preloader/out/handshake_usb.o
 .note.GNU-stack
                0x00000000        0x0 /alps/mprelease/MPload/ALPS.JB9.MP.V1.4_WINGTECH92_WET_JB9/source/alps.test/mediatek/preloader/out/handshake_usb.o
 .text          0x00000000        0x0 /alps/mprelease/MPload/ALPS.JB9.MP.V1.4_WINGTECH92_WET_JB9/source/alps.test/mediatek/preloader/out/i2c.o
 .data          0x00000000        0x0 /alps/mprelease/MPload/ALPS.JB9.MP.V1.4_WINGTECH92_WET_JB9/source/alps.test/mediatek/preloader/out/i2c.o
 .bss           0x00000000        0x0 /alps/mprelease/MPload/ALPS.JB9.MP.V1.4_WINGTECH92_WET_JB9/source/alps.test/mediatek/preloader/out/i2c.o
 .text.i2c_read
                0x00000000       0x88 /alps/mprelease/MPload/ALPS.JB9.MP.V1.4_WINGTECH92_WET_JB9/source/alps.test/mediatek/preloader/out/i2c.o
 .text.mt_i2c_test_eeprom
                0x00000000      0x164 /alps/mprelease/MPload/ALPS.JB9.MP.V1.4_WINGTECH92_WET_JB9/source/alps.test/mediatek/preloader/out/i2c.o
 .text.mt_i2c_test
                0x00000000       0x30 /alps/mprelease/MPload/ALPS.JB9.MP.V1.4_WINGTECH92_WET_JB9/source/alps.test/mediatek/preloader/out/i2c.o
 .rodata.__FUNCTION__.1818
                0x00000000        0xc /alps/mprelease/MPload/ALPS.JB9.MP.V1.4_WINGTECH92_WET_JB9/source/alps.test/mediatek/preloader/out/i2c.o
 .rodata.__FUNCTION__.1732
                0x00000000        0x9 /alps/mprelease/MPload/ALPS.JB9.MP.V1.4_WINGTECH92_WET_JB9/source/alps.test/mediatek/preloader/out/i2c.o
 .note.GNU-stack
                0x00000000        0x0 /alps/mprelease/MPload/ALPS.JB9.MP.V1.4_WINGTECH92_WET_JB9/source/alps.test/mediatek/preloader/out/i2c.o
 .text          0x00000000        0x0 /alps/mprelease/MPload/ALPS.JB9.MP.V1.4_WINGTECH92_WET_JB9/source/alps.test/mediatek/preloader/out/init.o
 .data          0x00000000        0x0 /alps/mprelease/MPload/ALPS.JB9.MP.V1.4_WINGTECH92_WET_JB9/source/alps.test/mediatek/preloader/out/init.o
 .bss           0x00000000        0x0 /alps/mprelease/MPload/ALPS.JB9.MP.V1.4_WINGTECH92_WET_JB9/source/alps.test/mediatek/preloader/out/init.o
 .text          0x00000000        0x0 /alps/mprelease/MPload/ALPS.JB9.MP.V1.4_WINGTECH92_WET_JB9/source/alps.test/mediatek/preloader/out/keypad.o
 .data          0x00000000        0x0 /alps/mprelease/MPload/ALPS.JB9.MP.V1.4_WINGTECH92_WET_JB9/source/alps.test/mediatek/preloader/out/keypad.o
 .bss           0x00000000        0x0 /alps/mprelease/MPload/ALPS.JB9.MP.V1.4_WINGTECH92_WET_JB9/source/alps.test/mediatek/preloader/out/keypad.o
 .text.disable_PMIC_kpd_clock
                0x00000000        0x2 /alps/mprelease/MPload/ALPS.JB9.MP.V1.4_WINGTECH92_WET_JB9/source/alps.test/mediatek/preloader/out/keypad.o
 .note.GNU-stack
                0x00000000        0x0 /alps/mprelease/MPload/ALPS.JB9.MP.V1.4_WINGTECH92_WET_JB9/source/alps.test/mediatek/preloader/out/keypad.o
 .text          0x00000000        0x0 /alps/mprelease/MPload/ALPS.JB9.MP.V1.4_WINGTECH92_WET_JB9/source/alps.test/mediatek/preloader/out/main.o
 .data          0x00000000        0x0 /alps/mprelease/MPload/ALPS.JB9.MP.V1.4_WINGTECH92_WET_JB9/source/alps.test/mediatek/preloader/out/main.o
 .bss           0x00000000        0x0 /alps/mprelease/MPload/ALPS.JB9.MP.V1.4_WINGTECH92_WET_JB9/source/alps.test/mediatek/preloader/out/main.o
 .note.GNU-stack
                0x00000000        0x0 /alps/mprelease/MPload/ALPS.JB9.MP.V1.4_WINGTECH92_WET_JB9/source/alps.test/mediatek/preloader/out/main.o
 .text          0x00000000        0x0 /alps/mprelease/MPload/ALPS.JB9.MP.V1.4_WINGTECH92_WET_JB9/source/alps.test/mediatek/preloader/out/memory.o
 .data          0x00000000        0x0 /alps/mprelease/MPload/ALPS.JB9.MP.V1.4_WINGTECH92_WET_JB9/source/alps.test/mediatek/preloader/out/memory.o
 .bss           0x00000000        0x0 /alps/mprelease/MPload/ALPS.JB9.MP.V1.4_WINGTECH92_WET_JB9/source/alps.test/mediatek/preloader/out/memory.o
 .note.GNU-stack
                0x00000000        0x0 /alps/mprelease/MPload/ALPS.JB9.MP.V1.4_WINGTECH92_WET_JB9/source/alps.test/mediatek/preloader/out/memory.o
 .text          0x00000000       0xbc /alps/mprelease/MPload/ALPS.JB9.MP.V1.4_WINGTECH92_WET_JB9/source/alps.test/mediatek/preloader/out/memory_test.o
 .data          0x00000000        0x0 /alps/mprelease/MPload/ALPS.JB9.MP.V1.4_WINGTECH92_WET_JB9/source/alps.test/mediatek/preloader/out/memory_test.o
 .bss           0x00000000        0x0 /alps/mprelease/MPload/ALPS.JB9.MP.V1.4_WINGTECH92_WET_JB9/source/alps.test/mediatek/preloader/out/memory_test.o
 .text          0x00000000        0x0 /alps/mprelease/MPload/ALPS.JB9.MP.V1.4_WINGTECH92_WET_JB9/source/alps.test/mediatek/preloader/out/mmc_common_inter.o
 .data          0x00000000        0x0 /alps/mprelease/MPload/ALPS.JB9.MP.V1.4_WINGTECH92_WET_JB9/source/alps.test/mediatek/preloader/out/mmc_common_inter.o
 .bss           0x00000000        0x0 /alps/mprelease/MPload/ALPS.JB9.MP.V1.4_WINGTECH92_WET_JB9/source/alps.test/mediatek/preloader/out/mmc_common_inter.o
 .note.GNU-stack
                0x00000000        0x0 /alps/mprelease/MPload/ALPS.JB9.MP.V1.4_WINGTECH92_WET_JB9/source/alps.test/mediatek/preloader/out/mmc_common_inter.o
 .text          0x00000000        0x0 /alps/mprelease/MPload/ALPS.JB9.MP.V1.4_WINGTECH92_WET_JB9/source/alps.test/mediatek/preloader/out/mmc_core.o
 .data          0x00000000        0x0 /alps/mprelease/MPload/ALPS.JB9.MP.V1.4_WINGTECH92_WET_JB9/source/alps.test/mediatek/preloader/out/mmc_core.o
 .bss           0x00000000        0x0 /alps/mprelease/MPload/ALPS.JB9.MP.V1.4_WINGTECH92_WET_JB9/source/alps.test/mediatek/preloader/out/mmc_core.o
 .text.mmc_set_write_prot
                0x00000000       0x2e /alps/mprelease/MPload/ALPS.JB9.MP.V1.4_WINGTECH92_WET_JB9/source/alps.test/mediatek/preloader/out/mmc_core.o
 .text.mmc_clr_write_prot
                0x00000000       0x2e /alps/mprelease/MPload/ALPS.JB9.MP.V1.4_WINGTECH92_WET_JB9/source/alps.test/mediatek/preloader/out/mmc_core.o
 .text.mmc_send_write_prot
                0x00000000       0x5c /alps/mprelease/MPload/ALPS.JB9.MP.V1.4_WINGTECH92_WET_JB9/source/alps.test/mediatek/preloader/out/mmc_core.o
 .text.mmc_send_write_prot_type
                0x00000000       0x5c /alps/mprelease/MPload/ALPS.JB9.MP.V1.4_WINGTECH92_WET_JB9/source/alps.test/mediatek/preloader/out/mmc_core.o
 .text.mmc_erase_start
                0x00000000       0x54 /alps/mprelease/MPload/ALPS.JB9.MP.V1.4_WINGTECH92_WET_JB9/source/alps.test/mediatek/preloader/out/mmc_core.o
 .text.mmc_erase_end
                0x00000000       0x54 /alps/mprelease/MPload/ALPS.JB9.MP.V1.4_WINGTECH92_WET_JB9/source/alps.test/mediatek/preloader/out/mmc_core.o
 .text.mmc_erase
                0x00000000       0x84 /alps/mprelease/MPload/ALPS.JB9.MP.V1.4_WINGTECH92_WET_JB9/source/alps.test/mediatek/preloader/out/mmc_core.o
 .text.mmc_get_wpg_size
                0x00000000       0x44 /alps/mprelease/MPload/ALPS.JB9.MP.V1.4_WINGTECH92_WET_JB9/source/alps.test/mediatek/preloader/out/mmc_core.o
 .text.mmc_set_ext_csd
                0x00000000       0x4e /alps/mprelease/MPload/ALPS.JB9.MP.V1.4_WINGTECH92_WET_JB9/source/alps.test/mediatek/preloader/out/mmc_core.o
 .text.mmc_set_erase_grp_def
                0x00000000       0x22 /alps/mprelease/MPload/ALPS.JB9.MP.V1.4_WINGTECH92_WET_JB9/source/alps.test/mediatek/preloader/out/mmc_core.o
 .text.mmc_set_gp_size
                0x00000000       0x68 /alps/mprelease/MPload/ALPS.JB9.MP.V1.4_WINGTECH92_WET_JB9/source/alps.test/mediatek/preloader/out/mmc_core.o
 .text.mmc_set_enh_size
                0x00000000       0x54 /alps/mprelease/MPload/ALPS.JB9.MP.V1.4_WINGTECH92_WET_JB9/source/alps.test/mediatek/preloader/out/mmc_core.o
 .text.mmc_set_enh_start_addr
                0x00000000       0x46 /alps/mprelease/MPload/ALPS.JB9.MP.V1.4_WINGTECH92_WET_JB9/source/alps.test/mediatek/preloader/out/mmc_core.o
 .text.mmc_set_boot_bus
                0x00000000       0x24 /alps/mprelease/MPload/ALPS.JB9.MP.V1.4_WINGTECH92_WET_JB9/source/alps.test/mediatek/preloader/out/mmc_core.o
 .text.mmc_set_part_config
                0x00000000       0x1a /alps/mprelease/MPload/ALPS.JB9.MP.V1.4_WINGTECH92_WET_JB9/source/alps.test/mediatek/preloader/out/mmc_core.o
 .text.mmc_set_part_attr
                0x00000000       0x32 /alps/mprelease/MPload/ALPS.JB9.MP.V1.4_WINGTECH92_WET_JB9/source/alps.test/mediatek/preloader/out/mmc_core.o
 .text.mmc_set_part_compl
                0x00000000       0x1a /alps/mprelease/MPload/ALPS.JB9.MP.V1.4_WINGTECH92_WET_JB9/source/alps.test/mediatek/preloader/out/mmc_core.o
 .rodata        0x00000000        0x4 /alps/mprelease/MPload/ALPS.JB9.MP.V1.4_WINGTECH92_WET_JB9/source/alps.test/mediatek/preloader/out/mmc_core.o
 .note.GNU-stack
                0x00000000        0x0 /alps/mprelease/MPload/ALPS.JB9.MP.V1.4_WINGTECH92_WET_JB9/source/alps.test/mediatek/preloader/out/mmc_core.o
 .text          0x00000000        0x0 /alps/mprelease/MPload/ALPS.JB9.MP.V1.4_WINGTECH92_WET_JB9/source/alps.test/mediatek/preloader/out/mmc_test.o
 .data          0x00000000        0x0 /alps/mprelease/MPload/ALPS.JB9.MP.V1.4_WINGTECH92_WET_JB9/source/alps.test/mediatek/preloader/out/mmc_test.o
 .bss           0x00000000        0x0 /alps/mprelease/MPload/ALPS.JB9.MP.V1.4_WINGTECH92_WET_JB9/source/alps.test/mediatek/preloader/out/mmc_test.o
 .note.GNU-stack
                0x00000000        0x0 /alps/mprelease/MPload/ALPS.JB9.MP.V1.4_WINGTECH92_WET_JB9/source/alps.test/mediatek/preloader/out/mmc_test.o
 .text          0x00000000        0x0 /alps/mprelease/MPload/ALPS.JB9.MP.V1.4_WINGTECH92_WET_JB9/source/alps.test/mediatek/preloader/out/mrdump.o
 .data          0x00000000        0x0 /alps/mprelease/MPload/ALPS.JB9.MP.V1.4_WINGTECH92_WET_JB9/source/alps.test/mediatek/preloader/out/mrdump.o
 .bss           0x00000000        0x0 /alps/mprelease/MPload/ALPS.JB9.MP.V1.4_WINGTECH92_WET_JB9/source/alps.test/mediatek/preloader/out/mrdump.o
 .note.GNU-stack
                0x00000000        0x0 /alps/mprelease/MPload/ALPS.JB9.MP.V1.4_WINGTECH92_WET_JB9/source/alps.test/mediatek/preloader/out/mrdump.o
 .text          0x00000000        0x0 /alps/mprelease/MPload/ALPS.JB9.MP.V1.4_WINGTECH92_WET_JB9/source/alps.test/mediatek/preloader/out/msdc.o
 .data          0x00000000        0x0 /alps/mprelease/MPload/ALPS.JB9.MP.V1.4_WINGTECH92_WET_JB9/source/alps.test/mediatek/preloader/out/msdc.o
 .bss           0x00000000        0x0 /alps/mprelease/MPload/ALPS.JB9.MP.V1.4_WINGTECH92_WET_JB9/source/alps.test/mediatek/preloader/out/msdc.o
 .text.msdc_dump_card_status
                0x00000000        0x2 /alps/mprelease/MPload/ALPS.JB9.MP.V1.4_WINGTECH92_WET_JB9/source/alps.test/mediatek/preloader/out/msdc.o
 .text.msdc_dump_ocr_reg
                0x00000000        0x2 /alps/mprelease/MPload/ALPS.JB9.MP.V1.4_WINGTECH92_WET_JB9/source/alps.test/mediatek/preloader/out/msdc.o
 .text.msdc_dump_io_resp
                0x00000000        0x2 /alps/mprelease/MPload/ALPS.JB9.MP.V1.4_WINGTECH92_WET_JB9/source/alps.test/mediatek/preloader/out/msdc.o
 .text.msdc_dump_rca_resp
                0x00000000        0x2 /alps/mprelease/MPload/ALPS.JB9.MP.V1.4_WINGTECH92_WET_JB9/source/alps.test/mediatek/preloader/out/msdc.o
 .text.msdc_intr_mask
                0x00000000        0xc /alps/mprelease/MPload/ALPS.JB9.MP.V1.4_WINGTECH92_WET_JB9/source/alps.test/mediatek/preloader/out/msdc.o
 .note.GNU-stack
                0x00000000        0x0 /alps/mprelease/MPload/ALPS.JB9.MP.V1.4_WINGTECH92_WET_JB9/source/alps.test/mediatek/preloader/out/msdc.o
 .text          0x00000000        0x0 /alps/mprelease/MPload/ALPS.JB9.MP.V1.4_WINGTECH92_WET_JB9/source/alps.test/mediatek/preloader/out/msdc_utils.o
 .data          0x00000000        0x0 /alps/mprelease/MPload/ALPS.JB9.MP.V1.4_WINGTECH92_WET_JB9/source/alps.test/mediatek/preloader/out/msdc_utils.o
 .bss           0x00000000        0x0 /alps/mprelease/MPload/ALPS.JB9.MP.V1.4_WINGTECH92_WET_JB9/source/alps.test/mediatek/preloader/out/msdc_utils.o
 .text.msdc_ntohl
                0x00000000       0x1e /alps/mprelease/MPload/ALPS.JB9.MP.V1.4_WINGTECH92_WET_JB9/source/alps.test/mediatek/preloader/out/msdc_utils.o
 .note.GNU-stack
                0x00000000        0x0 /alps/mprelease/MPload/ALPS.JB9.MP.V1.4_WINGTECH92_WET_JB9/source/alps.test/mediatek/preloader/out/msdc_utils.o
 .text          0x00000000        0x0 /alps/mprelease/MPload/ALPS.JB9.MP.V1.4_WINGTECH92_WET_JB9/source/alps.test/mediatek/preloader/out/partition.o
 .data          0x00000000        0x0 /alps/mprelease/MPload/ALPS.JB9.MP.V1.4_WINGTECH92_WET_JB9/source/alps.test/mediatek/preloader/out/partition.o
 .bss           0x00000000        0x0 /alps/mprelease/MPload/ALPS.JB9.MP.V1.4_WINGTECH92_WET_JB9/source/alps.test/mediatek/preloader/out/partition.o
 .note.GNU-stack
                0x00000000        0x0 /alps/mprelease/MPload/ALPS.JB9.MP.V1.4_WINGTECH92_WET_JB9/source/alps.test/mediatek/preloader/out/partition.o
 .text          0x00000000        0x0 /alps/mprelease/MPload/ALPS.JB9.MP.V1.4_WINGTECH92_WET_JB9/source/alps.test/mediatek/preloader/out/part.o
 .data          0x00000000        0x0 /alps/mprelease/MPload/ALPS.JB9.MP.V1.4_WINGTECH92_WET_JB9/source/alps.test/mediatek/preloader/out/part.o
 .bss           0x00000000        0x0 /alps/mprelease/MPload/ALPS.JB9.MP.V1.4_WINGTECH92_WET_JB9/source/alps.test/mediatek/preloader/out/part.o
 .note.GNU-stack
                0x00000000        0x0 /alps/mprelease/MPload/ALPS.JB9.MP.V1.4_WINGTECH92_WET_JB9/source/alps.test/mediatek/preloader/out/part.o
 .text          0x00000000        0x0 /alps/mprelease/MPload/ALPS.JB9.MP.V1.4_WINGTECH92_WET_JB9/source/alps.test/mediatek/preloader/out/platform.o
 .data          0x00000000        0x0 /alps/mprelease/MPload/ALPS.JB9.MP.V1.4_WINGTECH92_WET_JB9/source/alps.test/mediatek/preloader/out/platform.o
 .bss           0x00000000        0x0 /alps/mprelease/MPload/ALPS.JB9.MP.V1.4_WINGTECH92_WET_JB9/source/alps.test/mediatek/preloader/out/platform.o
 .bss.g_boot_dev
                0x00000000       0x20 /alps/mprelease/MPload/ALPS.JB9.MP.V1.4_WINGTECH92_WET_JB9/source/alps.test/mediatek/preloader/out/platform.o
 .note.GNU-stack
                0x00000000        0x0 /alps/mprelease/MPload/ALPS.JB9.MP.V1.4_WINGTECH92_WET_JB9/source/alps.test/mediatek/preloader/out/platform.o
 .text          0x00000000        0x0 /alps/mprelease/MPload/ALPS.JB9.MP.V1.4_WINGTECH92_WET_JB9/source/alps.test/mediatek/preloader/out/pll.o
 .data          0x00000000        0x0 /alps/mprelease/MPload/ALPS.JB9.MP.V1.4_WINGTECH92_WET_JB9/source/alps.test/mediatek/preloader/out/pll.o
 .bss           0x00000000        0x0 /alps/mprelease/MPload/ALPS.JB9.MP.V1.4_WINGTECH92_WET_JB9/source/alps.test/mediatek/preloader/out/pll.o
 .text.mt_mempll_cali
                0x00000000      0x1d0 /alps/mprelease/MPload/ALPS.JB9.MP.V1.4_WINGTECH92_WET_JB9/source/alps.test/mediatek/preloader/out/pll.o
 .note.GNU-stack
                0x00000000        0x0 /alps/mprelease/MPload/ALPS.JB9.MP.V1.4_WINGTECH92_WET_JB9/source/alps.test/mediatek/preloader/out/pll.o
 .text          0x00000000        0x0 /alps/mprelease/MPload/ALPS.JB9.MP.V1.4_WINGTECH92_WET_JB9/source/alps.test/mediatek/preloader/out/pmic_6333.o
 .data          0x00000000        0x0 /alps/mprelease/MPload/ALPS.JB9.MP.V1.4_WINGTECH92_WET_JB9/source/alps.test/mediatek/preloader/out/pmic_6333.o
 .bss           0x00000000        0x0 /alps/mprelease/MPload/ALPS.JB9.MP.V1.4_WINGTECH92_WET_JB9/source/alps.test/mediatek/preloader/out/pmic_6333.o
 .note.GNU-stack
                0x00000000        0x0 /alps/mprelease/MPload/ALPS.JB9.MP.V1.4_WINGTECH92_WET_JB9/source/alps.test/mediatek/preloader/out/pmic_6333.o
 .text          0x00000000        0x0 /alps/mprelease/MPload/ALPS.JB9.MP.V1.4_WINGTECH92_WET_JB9/source/alps.test/mediatek/preloader/out/pmic.o
 .data          0x00000000        0x0 /alps/mprelease/MPload/ALPS.JB9.MP.V1.4_WINGTECH92_WET_JB9/source/alps.test/mediatek/preloader/out/pmic.o
 .bss           0x00000000        0x0 /alps/mprelease/MPload/ALPS.JB9.MP.V1.4_WINGTECH92_WET_JB9/source/alps.test/mediatek/preloader/out/pmic.o
 .text.pmic_detect_homekey
                0x00000000       0x3c /alps/mprelease/MPload/ALPS.JB9.MP.V1.4_WINGTECH92_WET_JB9/source/alps.test/mediatek/preloader/out/pmic.o
 .note.GNU-stack
                0x00000000        0x0 /alps/mprelease/MPload/ALPS.JB9.MP.V1.4_WINGTECH92_WET_JB9/source/alps.test/mediatek/preloader/out/pmic.o
 .text          0x00000000        0x0 /alps/mprelease/MPload/ALPS.JB9.MP.V1.4_WINGTECH92_WET_JB9/source/alps.test/mediatek/preloader/out/pmic_wrap_init.o
 .data          0x00000000        0x0 /alps/mprelease/MPload/ALPS.JB9.MP.V1.4_WINGTECH92_WET_JB9/source/alps.test/mediatek/preloader/out/pmic_wrap_init.o
 .bss           0x00000000        0x0 /alps/mprelease/MPload/ALPS.JB9.MP.V1.4_WINGTECH92_WET_JB9/source/alps.test/mediatek/preloader/out/pmic_wrap_init.o
 .text.pwrap_dump_all_register
                0x00000000       0x80 /alps/mprelease/MPload/ALPS.JB9.MP.V1.4_WINGTECH92_WET_JB9/source/alps.test/mediatek/preloader/out/pmic_wrap_init.o
 .note.GNU-stack
                0x00000000        0x0 /alps/mprelease/MPload/ALPS.JB9.MP.V1.4_WINGTECH92_WET_JB9/source/alps.test/mediatek/preloader/out/pmic_wrap_init.o
 .text          0x00000000        0x0 /alps/mprelease/MPload/ALPS.JB9.MP.V1.4_WINGTECH92_WET_JB9/source/alps.test/mediatek/preloader/out/print.o
 .data          0x00000000        0x0 /alps/mprelease/MPload/ALPS.JB9.MP.V1.4_WINGTECH92_WET_JB9/source/alps.test/mediatek/preloader/out/print.o
 .bss           0x00000000        0x0 /alps/mprelease/MPload/ALPS.JB9.MP.V1.4_WINGTECH92_WET_JB9/source/alps.test/mediatek/preloader/out/print.o
 .note.GNU-stack
                0x00000000        0x0 /alps/mprelease/MPload/ALPS.JB9.MP.V1.4_WINGTECH92_WET_JB9/source/alps.test/mediatek/preloader/out/print.o
 .text          0x00000000        0x0 /alps/mprelease/MPload/ALPS.JB9.MP.V1.4_WINGTECH92_WET_JB9/source/alps.test/mediatek/preloader/out/rtc.o
 .data          0x00000000        0x0 /alps/mprelease/MPload/ALPS.JB9.MP.V1.4_WINGTECH92_WET_JB9/source/alps.test/mediatek/preloader/out/rtc.o
 .bss           0x00000000        0x0 /alps/mprelease/MPload/ALPS.JB9.MP.V1.4_WINGTECH92_WET_JB9/source/alps.test/mediatek/preloader/out/rtc.o
 .text.rtc_rdwr_uart_bits
                0x00000000       0x48 /alps/mprelease/MPload/ALPS.JB9.MP.V1.4_WINGTECH92_WET_JB9/source/alps.test/mediatek/preloader/out/rtc.o
 .note.GNU-stack
                0x00000000        0x0 /alps/mprelease/MPload/ALPS.JB9.MP.V1.4_WINGTECH92_WET_JB9/source/alps.test/mediatek/preloader/out/rtc.o
 .text          0x00000000        0x0 /alps/mprelease/MPload/ALPS.JB9.MP.V1.4_WINGTECH92_WET_JB9/source/alps.test/mediatek/preloader/out/sec_auth.o
 .data          0x00000000        0x0 /alps/mprelease/MPload/ALPS.JB9.MP.V1.4_WINGTECH92_WET_JB9/source/alps.test/mediatek/preloader/out/sec_auth.o
 .bss           0x00000000        0x0 /alps/mprelease/MPload/ALPS.JB9.MP.V1.4_WINGTECH92_WET_JB9/source/alps.test/mediatek/preloader/out/sec_auth.o
 .note.GNU-stack
                0x00000000        0x0 /alps/mprelease/MPload/ALPS.JB9.MP.V1.4_WINGTECH92_WET_JB9/source/alps.test/mediatek/preloader/out/sec_auth.o
 .text          0x00000000        0x0 /alps/mprelease/MPload/ALPS.JB9.MP.V1.4_WINGTECH92_WET_JB9/source/alps.test/mediatek/preloader/out/sec_boot.o
 .data          0x00000000        0x0 /alps/mprelease/MPload/ALPS.JB9.MP.V1.4_WINGTECH92_WET_JB9/source/alps.test/mediatek/preloader/out/sec_boot.o
 .bss           0x00000000        0x0 /alps/mprelease/MPload/ALPS.JB9.MP.V1.4_WINGTECH92_WET_JB9/source/alps.test/mediatek/preloader/out/sec_boot.o
 .note.GNU-stack
                0x00000000        0x0 /alps/mprelease/MPload/ALPS.JB9.MP.V1.4_WINGTECH92_WET_JB9/source/alps.test/mediatek/preloader/out/sec_boot.o
 .text          0x00000000        0x0 /alps/mprelease/MPload/ALPS.JB9.MP.V1.4_WINGTECH92_WET_JB9/source/alps.test/mediatek/preloader/out/sec_ctrl.o
 .data          0x00000000        0x0 /alps/mprelease/MPload/ALPS.JB9.MP.V1.4_WINGTECH92_WET_JB9/source/alps.test/mediatek/preloader/out/sec_ctrl.o
 .bss           0x00000000        0x0 /alps/mprelease/MPload/ALPS.JB9.MP.V1.4_WINGTECH92_WET_JB9/source/alps.test/mediatek/preloader/out/sec_ctrl.o
 .note.GNU-stack
                0x00000000        0x0 /alps/mprelease/MPload/ALPS.JB9.MP.V1.4_WINGTECH92_WET_JB9/source/alps.test/mediatek/preloader/out/sec_ctrl.o
 .text          0x00000000        0x0 /alps/mprelease/MPload/ALPS.JB9.MP.V1.4_WINGTECH92_WET_JB9/source/alps.test/mediatek/preloader/out/sec_flashtool_cfg.o
 .data          0x00000000        0x0 /alps/mprelease/MPload/ALPS.JB9.MP.V1.4_WINGTECH92_WET_JB9/source/alps.test/mediatek/preloader/out/sec_flashtool_cfg.o
 .bss           0x00000000        0x0 /alps/mprelease/MPload/ALPS.JB9.MP.V1.4_WINGTECH92_WET_JB9/source/alps.test/mediatek/preloader/out/sec_flashtool_cfg.o
 .note.GNU-stack
                0x00000000        0x0 /alps/mprelease/MPload/ALPS.JB9.MP.V1.4_WINGTECH92_WET_JB9/source/alps.test/mediatek/preloader/out/sec_flashtool_cfg.o
 .text          0x00000000        0x0 /alps/mprelease/MPload/ALPS.JB9.MP.V1.4_WINGTECH92_WET_JB9/source/alps.test/mediatek/preloader/out/sec_key.o
 .data          0x00000000        0x0 /alps/mprelease/MPload/ALPS.JB9.MP.V1.4_WINGTECH92_WET_JB9/source/alps.test/mediatek/preloader/out/sec_key.o
 .bss           0x00000000        0x0 /alps/mprelease/MPload/ALPS.JB9.MP.V1.4_WINGTECH92_WET_JB9/source/alps.test/mediatek/preloader/out/sec_key.o
 .note.GNU-stack
                0x00000000        0x0 /alps/mprelease/MPload/ALPS.JB9.MP.V1.4_WINGTECH92_WET_JB9/source/alps.test/mediatek/preloader/out/sec_key.o
 .text          0x00000000        0x0 /alps/mprelease/MPload/ALPS.JB9.MP.V1.4_WINGTECH92_WET_JB9/source/alps.test/mediatek/preloader/out/sec.o
 .data          0x00000000        0x0 /alps/mprelease/MPload/ALPS.JB9.MP.V1.4_WINGTECH92_WET_JB9/source/alps.test/mediatek/preloader/out/sec.o
 .bss           0x00000000        0x0 /alps/mprelease/MPload/ALPS.JB9.MP.V1.4_WINGTECH92_WET_JB9/source/alps.test/mediatek/preloader/out/sec.o
 .note.GNU-stack
                0x00000000        0x0 /alps/mprelease/MPload/ALPS.JB9.MP.V1.4_WINGTECH92_WET_JB9/source/alps.test/mediatek/preloader/out/sec.o
 .text          0x00000000        0x0 /alps/mprelease/MPload/ALPS.JB9.MP.V1.4_WINGTECH92_WET_JB9/source/alps.test/mediatek/preloader/out/sec_region.o
 .data          0x00000000        0x0 /alps/mprelease/MPload/ALPS.JB9.MP.V1.4_WINGTECH92_WET_JB9/source/alps.test/mediatek/preloader/out/sec_region.o
 .bss           0x00000000        0x0 /alps/mprelease/MPload/ALPS.JB9.MP.V1.4_WINGTECH92_WET_JB9/source/alps.test/mediatek/preloader/out/sec_region.o
 .text.da_region_check
                0x00000000       0x1c /alps/mprelease/MPload/ALPS.JB9.MP.V1.4_WINGTECH92_WET_JB9/source/alps.test/mediatek/preloader/out/sec_region.o
 .note.GNU-stack
                0x00000000        0x0 /alps/mprelease/MPload/ALPS.JB9.MP.V1.4_WINGTECH92_WET_JB9/source/alps.test/mediatek/preloader/out/sec_region.o
 .text          0x00000000        0x0 /alps/mprelease/MPload/ALPS.JB9.MP.V1.4_WINGTECH92_WET_JB9/source/alps.test/mediatek/preloader/out/sec_rom_info.o
 .data          0x00000000        0x0 /alps/mprelease/MPload/ALPS.JB9.MP.V1.4_WINGTECH92_WET_JB9/source/alps.test/mediatek/preloader/out/sec_rom_info.o
 .bss           0x00000000        0x0 /alps/mprelease/MPload/ALPS.JB9.MP.V1.4_WINGTECH92_WET_JB9/source/alps.test/mediatek/preloader/out/sec_rom_info.o
 .note.GNU-stack
                0x00000000        0x0 /alps/mprelease/MPload/ALPS.JB9.MP.V1.4_WINGTECH92_WET_JB9/source/alps.test/mediatek/preloader/out/sec_rom_info.o
 .text          0x00000000        0x0 /alps/mprelease/MPload/ALPS.JB9.MP.V1.4_WINGTECH92_WET_JB9/source/alps.test/mediatek/preloader/out/sec_secroimg.o
 .data          0x00000000        0x0 /alps/mprelease/MPload/ALPS.JB9.MP.V1.4_WINGTECH92_WET_JB9/source/alps.test/mediatek/preloader/out/sec_secroimg.o
 .bss           0x00000000        0x0 /alps/mprelease/MPload/ALPS.JB9.MP.V1.4_WINGTECH92_WET_JB9/source/alps.test/mediatek/preloader/out/sec_secroimg.o
 .note.GNU-stack
                0x00000000        0x0 /alps/mprelease/MPload/ALPS.JB9.MP.V1.4_WINGTECH92_WET_JB9/source/alps.test/mediatek/preloader/out/sec_secroimg.o
 .text          0x00000000        0x0 /alps/mprelease/MPload/ALPS.JB9.MP.V1.4_WINGTECH92_WET_JB9/source/alps.test/mediatek/preloader/out/sec_util.o
 .data          0x00000000        0x0 /alps/mprelease/MPload/ALPS.JB9.MP.V1.4_WINGTECH92_WET_JB9/source/alps.test/mediatek/preloader/out/sec_util.o
 .bss           0x00000000        0x0 /alps/mprelease/MPload/ALPS.JB9.MP.V1.4_WINGTECH92_WET_JB9/source/alps.test/mediatek/preloader/out/sec_util.o
 .text.sec_set_usb_handshake_status
                0x00000000        0xc /alps/mprelease/MPload/ALPS.JB9.MP.V1.4_WINGTECH92_WET_JB9/source/alps.test/mediatek/preloader/out/sec_util.o
 .text.sec_util_force_entering_fastboot_mode
                0x00000000       0x38 /alps/mprelease/MPload/ALPS.JB9.MP.V1.4_WINGTECH92_WET_JB9/source/alps.test/mediatek/preloader/out/sec_util.o
 .note.GNU-stack
                0x00000000        0x0 /alps/mprelease/MPload/ALPS.JB9.MP.V1.4_WINGTECH92_WET_JB9/source/alps.test/mediatek/preloader/out/sec_util.o
 .text          0x00000000        0x0 /alps/mprelease/MPload/ALPS.JB9.MP.V1.4_WINGTECH92_WET_JB9/source/alps.test/mediatek/preloader/out/stdlib.o
 .data          0x00000000        0x0 /alps/mprelease/MPload/ALPS.JB9.MP.V1.4_WINGTECH92_WET_JB9/source/alps.test/mediatek/preloader/out/stdlib.o
 .bss           0x00000000        0x0 /alps/mprelease/MPload/ALPS.JB9.MP.V1.4_WINGTECH92_WET_JB9/source/alps.test/mediatek/preloader/out/stdlib.o
 .text.longjmperror
                0x00000000       0x18 /alps/mprelease/MPload/ALPS.JB9.MP.V1.4_WINGTECH92_WET_JB9/source/alps.test/mediatek/preloader/out/stdlib.o
 .rodata.str1.1
                0x00000000        0xb /alps/mprelease/MPload/ALPS.JB9.MP.V1.4_WINGTECH92_WET_JB9/source/alps.test/mediatek/preloader/out/stdlib.o
 .note.GNU-stack
                0x00000000        0x0 /alps/mprelease/MPload/ALPS.JB9.MP.V1.4_WINGTECH92_WET_JB9/source/alps.test/mediatek/preloader/out/stdlib.o
 .text          0x00000000        0x0 /alps/mprelease/MPload/ALPS.JB9.MP.V1.4_WINGTECH92_WET_JB9/source/alps.test/mediatek/preloader/out/string.o
 .data          0x00000000        0x0 /alps/mprelease/MPload/ALPS.JB9.MP.V1.4_WINGTECH92_WET_JB9/source/alps.test/mediatek/preloader/out/string.o
 .bss           0x00000000        0x0 /alps/mprelease/MPload/ALPS.JB9.MP.V1.4_WINGTECH92_WET_JB9/source/alps.test/mediatek/preloader/out/string.o
 .note.GNU-stack
                0x00000000        0x0 /alps/mprelease/MPload/ALPS.JB9.MP.V1.4_WINGTECH92_WET_JB9/source/alps.test/mediatek/preloader/out/string.o
 .text          0x00000000        0x0 /alps/mprelease/MPload/ALPS.JB9.MP.V1.4_WINGTECH92_WET_JB9/source/alps.test/mediatek/preloader/out/timer.o
 .data          0x00000000        0x0 /alps/mprelease/MPload/ALPS.JB9.MP.V1.4_WINGTECH92_WET_JB9/source/alps.test/mediatek/preloader/out/timer.o
 .bss           0x00000000        0x0 /alps/mprelease/MPload/ALPS.JB9.MP.V1.4_WINGTECH92_WET_JB9/source/alps.test/mediatek/preloader/out/timer.o
 .note.GNU-stack
                0x00000000        0x0 /alps/mprelease/MPload/ALPS.JB9.MP.V1.4_WINGTECH92_WET_JB9/source/alps.test/mediatek/preloader/out/timer.o
 .text          0x00000000        0x0 /alps/mprelease/MPload/ALPS.JB9.MP.V1.4_WINGTECH92_WET_JB9/source/alps.test/mediatek/preloader/out/uart.o
 .data          0x00000000        0x0 /alps/mprelease/MPload/ALPS.JB9.MP.V1.4_WINGTECH92_WET_JB9/source/alps.test/mediatek/preloader/out/uart.o
 .bss           0x00000000        0x0 /alps/mprelease/MPload/ALPS.JB9.MP.V1.4_WINGTECH92_WET_JB9/source/alps.test/mediatek/preloader/out/uart.o
 .text.serial_nonblock_getc
                0x00000000       0x10 /alps/mprelease/MPload/ALPS.JB9.MP.V1.4_WINGTECH92_WET_JB9/source/alps.test/mediatek/preloader/out/uart.o
 .note.GNU-stack
                0x00000000        0x0 /alps/mprelease/MPload/ALPS.JB9.MP.V1.4_WINGTECH92_WET_JB9/source/alps.test/mediatek/preloader/out/uart.o
 .text          0x00000000        0x0 /alps/mprelease/MPload/ALPS.JB9.MP.V1.4_WINGTECH92_WET_JB9/source/alps.test/mediatek/preloader/out/usbd.o
 .data          0x00000000        0x0 /alps/mprelease/MPload/ALPS.JB9.MP.V1.4_WINGTECH92_WET_JB9/source/alps.test/mediatek/preloader/out/usbd.o
 .bss           0x00000000        0x0 /alps/mprelease/MPload/ALPS.JB9.MP.V1.4_WINGTECH92_WET_JB9/source/alps.test/mediatek/preloader/out/usbd.o
 .text.udc_disable
                0x00000000        0x2 /alps/mprelease/MPload/ALPS.JB9.MP.V1.4_WINGTECH92_WET_JB9/source/alps.test/mediatek/preloader/out/usbd.o
 .text.get_linestate
                0x00000000       0x2c /alps/mprelease/MPload/ALPS.JB9.MP.V1.4_WINGTECH92_WET_JB9/source/alps.test/mediatek/preloader/out/usbd.o
 .note.GNU-stack
                0x00000000        0x0 /alps/mprelease/MPload/ALPS.JB9.MP.V1.4_WINGTECH92_WET_JB9/source/alps.test/mediatek/preloader/out/usbd.o
 .text          0x00000000        0x0 /alps/mprelease/MPload/ALPS.JB9.MP.V1.4_WINGTECH92_WET_JB9/source/alps.test/mediatek/preloader/out/usbphy.o
 .data          0x00000000        0x0 /alps/mprelease/MPload/ALPS.JB9.MP.V1.4_WINGTECH92_WET_JB9/source/alps.test/mediatek/preloader/out/usbphy.o
 .bss           0x00000000        0x0 /alps/mprelease/MPload/ALPS.JB9.MP.V1.4_WINGTECH92_WET_JB9/source/alps.test/mediatek/preloader/out/usbphy.o
 .text.mt_usb_calibraion
                0x00000000        0x2 /alps/mprelease/MPload/ALPS.JB9.MP.V1.4_WINGTECH92_WET_JB9/source/alps.test/mediatek/preloader/out/usbphy.o
 .text.mt_usb_phy_calibraion
                0x00000000        0x2 /alps/mprelease/MPload/ALPS.JB9.MP.V1.4_WINGTECH92_WET_JB9/source/alps.test/mediatek/preloader/out/usbphy.o
 .text.mt_usb11_phy_savecurrent
                0x00000000        0x2 /alps/mprelease/MPload/ALPS.JB9.MP.V1.4_WINGTECH92_WET_JB9/source/alps.test/mediatek/preloader/out/usbphy.o
 .note.GNU-stack
                0x00000000        0x0 /alps/mprelease/MPload/ALPS.JB9.MP.V1.4_WINGTECH92_WET_JB9/source/alps.test/mediatek/preloader/out/usbphy.o
 .text          0x00000000        0x0 /alps/mprelease/MPload/ALPS.JB9.MP.V1.4_WINGTECH92_WET_JB9/source/alps.test/mediatek/preloader/out/usbtty.o
 .data          0x00000000        0x0 /alps/mprelease/MPload/ALPS.JB9.MP.V1.4_WINGTECH92_WET_JB9/source/alps.test/mediatek/preloader/out/usbtty.o
 .bss           0x00000000        0x0 /alps/mprelease/MPload/ALPS.JB9.MP.V1.4_WINGTECH92_WET_JB9/source/alps.test/mediatek/preloader/out/usbtty.o
 .text.mt_usbtty_tstc
                0x00000000       0x18 /alps/mprelease/MPload/ALPS.JB9.MP.V1.4_WINGTECH92_WET_JB9/source/alps.test/mediatek/preloader/out/usbtty.o
 .text.mt_usbtty_getc
                0x00000000       0x28 /alps/mprelease/MPload/ALPS.JB9.MP.V1.4_WINGTECH92_WET_JB9/source/alps.test/mediatek/preloader/out/usbtty.o
 .text.mt_usbtty_putc
                0x00000000       0x38 /alps/mprelease/MPload/ALPS.JB9.MP.V1.4_WINGTECH92_WET_JB9/source/alps.test/mediatek/preloader/out/usbtty.o
 .bss.serialstate
                0x00000000        0x2 /alps/mprelease/MPload/ALPS.JB9.MP.V1.4_WINGTECH92_WET_JB9/source/alps.test/mediatek/preloader/out/usbtty.o
 .note.GNU-stack
                0x00000000        0x0 /alps/mprelease/MPload/ALPS.JB9.MP.V1.4_WINGTECH92_WET_JB9/source/alps.test/mediatek/preloader/out/usbtty.o
 .text          0x00000000        0x0 /alps/mprelease/MPload/ALPS.JB9.MP.V1.4_WINGTECH92_WET_JB9/source/alps.test/mediatek/preloader/out/wdt.o
 .data          0x00000000        0x0 /alps/mprelease/MPload/ALPS.JB9.MP.V1.4_WINGTECH92_WET_JB9/source/alps.test/mediatek/preloader/out/wdt.o
 .bss           0x00000000        0x0 /alps/mprelease/MPload/ALPS.JB9.MP.V1.4_WINGTECH92_WET_JB9/source/alps.test/mediatek/preloader/out/wdt.o
 .text.mtk_wdt_disable
                0x00000000       0x14 /alps/mprelease/MPload/ALPS.JB9.MP.V1.4_WINGTECH92_WET_JB9/source/alps.test/mediatek/preloader/out/wdt.o
 .text.mtk_wdt_sw_reset
                0x00000000       0x24 /alps/mprelease/MPload/ALPS.JB9.MP.V1.4_WINGTECH92_WET_JB9/source/alps.test/mediatek/preloader/out/wdt.o
 .text.mtk_is_rgu_trigger_reset
                0x00000000       0x14 /alps/mprelease/MPload/ALPS.JB9.MP.V1.4_WINGTECH92_WET_JB9/source/alps.test/mediatek/preloader/out/wdt.o
 .text.rgu_dram_reserved
                0x00000000       0x74 /alps/mprelease/MPload/ALPS.JB9.MP.V1.4_WINGTECH92_WET_JB9/source/alps.test/mediatek/preloader/out/wdt.o
 .text.rgu_is_reserve_ddr_enabled
                0x00000000       0x10 /alps/mprelease/MPload/ALPS.JB9.MP.V1.4_WINGTECH92_WET_JB9/source/alps.test/mediatek/preloader/out/wdt.o
 .text.rgu_is_dram_slf
                0x00000000       0x20 /alps/mprelease/MPload/ALPS.JB9.MP.V1.4_WINGTECH92_WET_JB9/source/alps.test/mediatek/preloader/out/wdt.o
 .text.rgu_release_rg_dramc_conf_iso
                0x00000000       0x28 /alps/mprelease/MPload/ALPS.JB9.MP.V1.4_WINGTECH92_WET_JB9/source/alps.test/mediatek/preloader/out/wdt.o
 .text.rgu_release_rg_dramc_iso
                0x00000000       0x28 /alps/mprelease/MPload/ALPS.JB9.MP.V1.4_WINGTECH92_WET_JB9/source/alps.test/mediatek/preloader/out/wdt.o
 .text.rgu_release_rg_dramc_sref
                0x00000000       0x28 /alps/mprelease/MPload/ALPS.JB9.MP.V1.4_WINGTECH92_WET_JB9/source/alps.test/mediatek/preloader/out/wdt.o
 .text.rgu_is_reserve_ddr_mode_success
                0x00000000       0x30 /alps/mprelease/MPload/ALPS.JB9.MP.V1.4_WINGTECH92_WET_JB9/source/alps.test/mediatek/preloader/out/wdt.o
 .text.rgu_swsys_reset
                0x00000000       0x3c /alps/mprelease/MPload/ALPS.JB9.MP.V1.4_WINGTECH92_WET_JB9/source/alps.test/mediatek/preloader/out/wdt.o
 .rodata.__func__.1335
                0x00000000       0x12 /alps/mprelease/MPload/ALPS.JB9.MP.V1.4_WINGTECH92_WET_JB9/source/alps.test/mediatek/preloader/out/wdt.o
 .rodata.__func__.1348
                0x00000000       0x1e /alps/mprelease/MPload/ALPS.JB9.MP.V1.4_WINGTECH92_WET_JB9/source/alps.test/mediatek/preloader/out/wdt.o
 .rodata.__func__.1358
                0x00000000       0x1a /alps/mprelease/MPload/ALPS.JB9.MP.V1.4_WINGTECH92_WET_JB9/source/alps.test/mediatek/preloader/out/wdt.o
 .rodata.__func__.1353
                0x00000000       0x19 /alps/mprelease/MPload/ALPS.JB9.MP.V1.4_WINGTECH92_WET_JB9/source/alps.test/mediatek/preloader/out/wdt.o
 .note.GNU-stack
                0x00000000        0x0 /alps/mprelease/MPload/ALPS.JB9.MP.V1.4_WINGTECH92_WET_JB9/source/alps.test/mediatek/preloader/out/wdt.o
 .text          0x00000000        0x0 /alps/mprelease/MPload/ALPS.JB9.MP.V1.4_WINGTECH92_WET_JB9/source/alps.test/mediatek/platform/mt6592/preloader/src/SecLib.a(seclib_boot.o)
 .data          0x00000000        0x0 /alps/mprelease/MPload/ALPS.JB9.MP.V1.4_WINGTECH92_WET_JB9/source/alps.test/mediatek/platform/mt6592/preloader/src/SecLib.a(seclib_boot.o)
 .bss           0x00000000        0x0 /alps/mprelease/MPload/ALPS.JB9.MP.V1.4_WINGTECH92_WET_JB9/source/alps.test/mediatek/platform/mt6592/preloader/src/SecLib.a(seclib_boot.o)
 .text.seclib_image_info_update
                0x00000000        0x8 /alps/mprelease/MPload/ALPS.JB9.MP.V1.4_WINGTECH92_WET_JB9/source/alps.test/mediatek/platform/mt6592/preloader/src/SecLib.a(seclib_boot.o)
 .text.seclib_image_info_add
                0x00000000        0x8 /alps/mprelease/MPload/ALPS.JB9.MP.V1.4_WINGTECH92_WET_JB9/source/alps.test/mediatek/platform/mt6592/preloader/src/SecLib.a(seclib_boot.o)
 .note.GNU-stack
                0x00000000        0x0 /alps/mprelease/MPload/ALPS.JB9.MP.V1.4_WINGTECH92_WET_JB9/source/alps.test/mediatek/platform/mt6592/preloader/src/SecLib.a(seclib_boot.o)
 .text          0x00000000        0x0 /alps/mprelease/MPload/ALPS.JB9.MP.V1.4_WINGTECH92_WET_JB9/source/alps.test/mediatek/platform/mt6592/preloader/src/SecLib.a(seclib_dl.o)
 .data          0x00000000        0x0 /alps/mprelease/MPload/ALPS.JB9.MP.V1.4_WINGTECH92_WET_JB9/source/alps.test/mediatek/platform/mt6592/preloader/src/SecLib.a(seclib_dl.o)
 .bss           0x00000000        0x0 /alps/mprelease/MPload/ALPS.JB9.MP.V1.4_WINGTECH92_WET_JB9/source/alps.test/mediatek/platform/mt6592/preloader/src/SecLib.a(seclib_dl.o)
 .note.GNU-stack
                0x00000000        0x0 /alps/mprelease/MPload/ALPS.JB9.MP.V1.4_WINGTECH92_WET_JB9/source/alps.test/mediatek/platform/mt6592/preloader/src/SecLib.a(seclib_dl.o)
 .text          0x00000000        0x0 /alps/mprelease/MPload/ALPS.JB9.MP.V1.4_WINGTECH92_WET_JB9/source/alps.test/mediatek/platform/mt6592/preloader/src/SecLib.a(seclib_img_hash.o)
 .data          0x00000000        0x0 /alps/mprelease/MPload/ALPS.JB9.MP.V1.4_WINGTECH92_WET_JB9/source/alps.test/mediatek/platform/mt6592/preloader/src/SecLib.a(seclib_img_hash.o)
 .bss           0x00000000        0x0 /alps/mprelease/MPload/ALPS.JB9.MP.V1.4_WINGTECH92_WET_JB9/source/alps.test/mediatek/platform/mt6592/preloader/src/SecLib.a(seclib_img_hash.o)
 .note.GNU-stack
                0x00000000        0x0 /alps/mprelease/MPload/ALPS.JB9.MP.V1.4_WINGTECH92_WET_JB9/source/alps.test/mediatek/platform/mt6592/preloader/src/SecLib.a(seclib_img_hash.o)
 .text          0x00000000        0x0 /alps/mprelease/MPload/ALPS.JB9.MP.V1.4_WINGTECH92_WET_JB9/source/alps.test/mediatek/platform/mt6592/preloader/src/SecLib.a(seclib_img_verify.o)
 .data          0x00000000        0x0 /alps/mprelease/MPload/ALPS.JB9.MP.V1.4_WINGTECH92_WET_JB9/source/alps.test/mediatek/platform/mt6592/preloader/src/SecLib.a(seclib_img_verify.o)
 .bss           0x00000000        0x0 /alps/mprelease/MPload/ALPS.JB9.MP.V1.4_WINGTECH92_WET_JB9/source/alps.test/mediatek/platform/mt6592/preloader/src/SecLib.a(seclib_img_verify.o)
 .note.GNU-stack
                0x00000000        0x0 /alps/mprelease/MPload/ALPS.JB9.MP.V1.4_WINGTECH92_WET_JB9/source/alps.test/mediatek/platform/mt6592/preloader/src/SecLib.a(seclib_img_verify.o)
 .text          0x00000000        0x0 /alps/mprelease/MPload/ALPS.JB9.MP.V1.4_WINGTECH92_WET_JB9/source/alps.test/mediatek/platform/mt6592/preloader/src/SecLib.a(seclib_key.o)
 .data          0x00000000        0x0 /alps/mprelease/MPload/ALPS.JB9.MP.V1.4_WINGTECH92_WET_JB9/source/alps.test/mediatek/platform/mt6592/preloader/src/SecLib.a(seclib_key.o)
 .bss           0x00000000        0x0 /alps/mprelease/MPload/ALPS.JB9.MP.V1.4_WINGTECH92_WET_JB9/source/alps.test/mediatek/platform/mt6592/preloader/src/SecLib.a(seclib_key.o)
 .note.GNU-stack
                0x00000000        0x0 /alps/mprelease/MPload/ALPS.JB9.MP.V1.4_WINGTECH92_WET_JB9/source/alps.test/mediatek/platform/mt6592/preloader/src/SecLib.a(seclib_key.o)
 .text          0x00000000        0x0 /alps/mprelease/MPload/ALPS.JB9.MP.V1.4_WINGTECH92_WET_JB9/source/alps.test/mediatek/platform/mt6592/preloader/src/SecLib.a(seclib.o)
 .data          0x00000000        0x0 /alps/mprelease/MPload/ALPS.JB9.MP.V1.4_WINGTECH92_WET_JB9/source/alps.test/mediatek/platform/mt6592/preloader/src/SecLib.a(seclib.o)
 .bss           0x00000000        0x0 /alps/mprelease/MPload/ALPS.JB9.MP.V1.4_WINGTECH92_WET_JB9/source/alps.test/mediatek/platform/mt6592/preloader/src/SecLib.a(seclib.o)
 .note.GNU-stack
                0x00000000        0x0 /alps/mprelease/MPload/ALPS.JB9.MP.V1.4_WINGTECH92_WET_JB9/source/alps.test/mediatek/platform/mt6592/preloader/src/SecLib.a(seclib.o)
 .text          0x00000000        0x0 /alps/mprelease/MPload/ALPS.JB9.MP.V1.4_WINGTECH92_WET_JB9/source/alps.test/mediatek/platform/mt6592/preloader/src/SecLib.a(seclib_secroimg.o)
 .data          0x00000000        0x0 /alps/mprelease/MPload/ALPS.JB9.MP.V1.4_WINGTECH92_WET_JB9/source/alps.test/mediatek/platform/mt6592/preloader/src/SecLib.a(seclib_secroimg.o)
 .bss           0x00000000        0x0 /alps/mprelease/MPload/ALPS.JB9.MP.V1.4_WINGTECH92_WET_JB9/source/alps.test/mediatek/platform/mt6592/preloader/src/SecLib.a(seclib_secroimg.o)
 .note.GNU-stack
                0x00000000        0x0 /alps/mprelease/MPload/ALPS.JB9.MP.V1.4_WINGTECH92_WET_JB9/source/alps.test/mediatek/platform/mt6592/preloader/src/SecLib.a(seclib_secroimg.o)
 .text          0x00000000        0x0 /alps/mprelease/MPload/ALPS.JB9.MP.V1.4_WINGTECH92_WET_JB9/source/alps.test/mediatek/platform/mt6592/preloader/src/SecLib.a(seclib_sej_export.o)
 .data          0x00000000        0x0 /alps/mprelease/MPload/ALPS.JB9.MP.V1.4_WINGTECH92_WET_JB9/source/alps.test/mediatek/platform/mt6592/preloader/src/SecLib.a(seclib_sej_export.o)
 .bss           0x00000000        0x0 /alps/mprelease/MPload/ALPS.JB9.MP.V1.4_WINGTECH92_WET_JB9/source/alps.test/mediatek/platform/mt6592/preloader/src/SecLib.a(seclib_sej_export.o)
 .text.sp_sej_deinit
                0x00000000        0x4 /alps/mprelease/MPload/ALPS.JB9.MP.V1.4_WINGTECH92_WET_JB9/source/alps.test/mediatek/platform/mt6592/preloader/src/SecLib.a(seclib_sej_export.o)
 .note.GNU-stack
                0x00000000        0x0 /alps/mprelease/MPload/ALPS.JB9.MP.V1.4_WINGTECH92_WET_JB9/source/alps.test/mediatek/platform/mt6592/preloader/src/SecLib.a(seclib_sej_export.o)
 .text          0x00000000        0x0 /alps/mprelease/MPload/ALPS.JB9.MP.V1.4_WINGTECH92_WET_JB9/source/alps.test/mediatek/platform/mt6592/preloader/src/SecLib.a(seclib_util.o)
 .data          0x00000000        0x0 /alps/mprelease/MPload/ALPS.JB9.MP.V1.4_WINGTECH92_WET_JB9/source/alps.test/mediatek/platform/mt6592/preloader/src/SecLib.a(seclib_util.o)
 .bss           0x00000000        0x0 /alps/mprelease/MPload/ALPS.JB9.MP.V1.4_WINGTECH92_WET_JB9/source/alps.test/mediatek/platform/mt6592/preloader/src/SecLib.a(seclib_util.o)
 .note.GNU-stack
                0x00000000        0x0 /alps/mprelease/MPload/ALPS.JB9.MP.V1.4_WINGTECH92_WET_JB9/source/alps.test/mediatek/platform/mt6592/preloader/src/SecLib.a(seclib_util.o)
 .text          0x00000000        0x0 /alps/mprelease/MPload/ALPS.JB9.MP.V1.4_WINGTECH92_WET_JB9/source/alps.test/mediatek/platform/mt6592/preloader/src/SecLib.a(weak_auth.o)
 .data          0x00000000        0x0 /alps/mprelease/MPload/ALPS.JB9.MP.V1.4_WINGTECH92_WET_JB9/source/alps.test/mediatek/platform/mt6592/preloader/src/SecLib.a(weak_auth.o)
 .bss           0x00000000        0x0 /alps/mprelease/MPload/ALPS.JB9.MP.V1.4_WINGTECH92_WET_JB9/source/alps.test/mediatek/platform/mt6592/preloader/src/SecLib.a(weak_auth.o)
 .text.seclib_rsa_init
                0x00000000        0x8 /alps/mprelease/MPload/ALPS.JB9.MP.V1.4_WINGTECH92_WET_JB9/source/alps.test/mediatek/platform/mt6592/preloader/src/SecLib.a(weak_auth.o)
 .note.GNU-stack
                0x00000000        0x0 /alps/mprelease/MPload/ALPS.JB9.MP.V1.4_WINGTECH92_WET_JB9/source/alps.test/mediatek/platform/mt6592/preloader/src/SecLib.a(weak_auth.o)
 .text          0x00000000        0x0 /alps/mprelease/MPload/ALPS.JB9.MP.V1.4_WINGTECH92_WET_JB9/source/alps.test/mediatek/platform/mt6592/preloader/src/SecLib.a(seccfg_crypto.o)
 .data          0x00000000        0x0 /alps/mprelease/MPload/ALPS.JB9.MP.V1.4_WINGTECH92_WET_JB9/source/alps.test/mediatek/platform/mt6592/preloader/src/SecLib.a(seccfg_crypto.o)
 .bss           0x00000000        0x0 /alps/mprelease/MPload/ALPS.JB9.MP.V1.4_WINGTECH92_WET_JB9/source/alps.test/mediatek/platform/mt6592/preloader/src/SecLib.a(seccfg_crypto.o)
 .note.GNU-stack
                0x00000000        0x0 /alps/mprelease/MPload/ALPS.JB9.MP.V1.4_WINGTECH92_WET_JB9/source/alps.test/mediatek/platform/mt6592/preloader/src/SecLib.a(seccfg_crypto.o)
 .text          0x00000000        0x0 /alps/mprelease/MPload/ALPS.JB9.MP.V1.4_WINGTECH92_WET_JB9/source/alps.test/mediatek/platform/mt6592/preloader/src/security/auth/DaVerifyLib.a(auth.o)
 .data          0x00000000        0x0 /alps/mprelease/MPload/ALPS.JB9.MP.V1.4_WINGTECH92_WET_JB9/source/alps.test/mediatek/platform/mt6592/preloader/src/security/auth/DaVerifyLib.a(auth.o)
 .bss           0x00000000        0x0 /alps/mprelease/MPload/ALPS.JB9.MP.V1.4_WINGTECH92_WET_JB9/source/alps.test/mediatek/platform/mt6592/preloader/src/security/auth/DaVerifyLib.a(auth.o)
 .note.GNU-stack
                0x00000000        0x0 /alps/mprelease/MPload/ALPS.JB9.MP.V1.4_WINGTECH92_WET_JB9/source/alps.test/mediatek/platform/mt6592/preloader/src/security/auth/DaVerifyLib.a(auth.o)
 .text          0x00000000        0x0 /alps/mprelease/MPload/ALPS.JB9.MP.V1.4_WINGTECH92_WET_JB9/source/alps.test/mediatek/platform/mt6592/preloader/src/security/auth/DaVerifyLib.a(bgn_io.o)
 .data          0x00000000        0x0 /alps/mprelease/MPload/ALPS.JB9.MP.V1.4_WINGTECH92_WET_JB9/source/alps.test/mediatek/platform/mt6592/preloader/src/security/auth/DaVerifyLib.a(bgn_io.o)
 .bss           0x00000000        0x0 /alps/mprelease/MPload/ALPS.JB9.MP.V1.4_WINGTECH92_WET_JB9/source/alps.test/mediatek/platform/mt6592/preloader/src/security/auth/DaVerifyLib.a(bgn_io.o)
 .note.GNU-stack
                0x00000000        0x0 /alps/mprelease/MPload/ALPS.JB9.MP.V1.4_WINGTECH92_WET_JB9/source/alps.test/mediatek/platform/mt6592/preloader/src/security/auth/DaVerifyLib.a(bgn_io.o)
 .text          0x00000000        0x0 /alps/mprelease/MPload/ALPS.JB9.MP.V1.4_WINGTECH92_WET_JB9/source/alps.test/mediatek/platform/mt6592/preloader/src/security/auth/DaVerifyLib.a(bgn_util.o)
 .data          0x00000000        0x0 /alps/mprelease/MPload/ALPS.JB9.MP.V1.4_WINGTECH92_WET_JB9/source/alps.test/mediatek/platform/mt6592/preloader/src/security/auth/DaVerifyLib.a(bgn_util.o)
 .bss           0x00000000        0x0 /alps/mprelease/MPload/ALPS.JB9.MP.V1.4_WINGTECH92_WET_JB9/source/alps.test/mediatek/platform/mt6592/preloader/src/security/auth/DaVerifyLib.a(bgn_util.o)
 .text.bgn_swap
                0x00000000       0x48 /alps/mprelease/MPload/ALPS.JB9.MP.V1.4_WINGTECH92_WET_JB9/source/alps.test/mediatek/platform/mt6592/preloader/src/security/auth/DaVerifyLib.a(bgn_util.o)
 .text.bgn_lsb  0x00000000       0x54 /alps/mprelease/MPload/ALPS.JB9.MP.V1.4_WINGTECH92_WET_JB9/source/alps.test/mediatek/platform/mt6592/preloader/src/security/auth/DaVerifyLib.a(bgn_util.o)
 .text.bgn_div_int
                0x00000000       0x40 /alps/mprelease/MPload/ALPS.JB9.MP.V1.4_WINGTECH92_WET_JB9/source/alps.test/mediatek/platform/mt6592/preloader/src/security/auth/DaVerifyLib.a(bgn_util.o)
 .text.bgn_mod_int
                0x00000000       0xc8 /alps/mprelease/MPload/ALPS.JB9.MP.V1.4_WINGTECH92_WET_JB9/source/alps.test/mediatek/platform/mt6592/preloader/src/security/auth/DaVerifyLib.a(bgn_util.o)
 .note.GNU-stack
                0x00000000        0x0 /alps/mprelease/MPload/ALPS.JB9.MP.V1.4_WINGTECH92_WET_JB9/source/alps.test/mediatek/platform/mt6592/preloader/src/security/auth/DaVerifyLib.a(bgn_util.o)
 .text          0x00000000        0x0 /alps/mprelease/MPload/ALPS.JB9.MP.V1.4_WINGTECH92_WET_JB9/source/alps.test/mediatek/platform/mt6592/preloader/src/security/auth/DaVerifyLib.a(rsa.o)
 .data          0x00000000        0x0 /alps/mprelease/MPload/ALPS.JB9.MP.V1.4_WINGTECH92_WET_JB9/source/alps.test/mediatek/platform/mt6592/preloader/src/security/auth/DaVerifyLib.a(rsa.o)
 .bss           0x00000000        0x0 /alps/mprelease/MPload/ALPS.JB9.MP.V1.4_WINGTECH92_WET_JB9/source/alps.test/mediatek/platform/mt6592/preloader/src/security/auth/DaVerifyLib.a(rsa.o)
 .text.rsa_init
                0x00000000       0x38 /alps/mprelease/MPload/ALPS.JB9.MP.V1.4_WINGTECH92_WET_JB9/source/alps.test/mediatek/platform/mt6592/preloader/src/security/auth/DaVerifyLib.a(rsa.o)
 .text.rsa_free
                0x00000000       0x3c /alps/mprelease/MPload/ALPS.JB9.MP.V1.4_WINGTECH92_WET_JB9/source/alps.test/mediatek/platform/mt6592/preloader/src/security/auth/DaVerifyLib.a(rsa.o)
 .bss.rsa_ci    0x00000000       0x80 /alps/mprelease/MPload/ALPS.JB9.MP.V1.4_WINGTECH92_WET_JB9/source/alps.test/mediatek/platform/mt6592/preloader/src/security/auth/DaVerifyLib.a(rsa.o)
 .note.GNU-stack
                0x00000000        0x0 /alps/mprelease/MPload/ALPS.JB9.MP.V1.4_WINGTECH92_WET_JB9/source/alps.test/mediatek/platform/mt6592/preloader/src/security/auth/DaVerifyLib.a(rsa.o)
 .text          0x00000000        0x0 /alps/mprelease/MPload/ALPS.JB9.MP.V1.4_WINGTECH92_WET_JB9/source/alps.test/mediatek/platform/mt6592/preloader/src/security/auth/DaVerifyLib.a(sha1.o)
 .data          0x00000000        0x0 /alps/mprelease/MPload/ALPS.JB9.MP.V1.4_WINGTECH92_WET_JB9/source/alps.test/mediatek/platform/mt6592/preloader/src/security/auth/DaVerifyLib.a(sha1.o)
 .bss           0x00000000        0x0 /alps/mprelease/MPload/ALPS.JB9.MP.V1.4_WINGTECH92_WET_JB9/source/alps.test/mediatek/platform/mt6592/preloader/src/security/auth/DaVerifyLib.a(sha1.o)
 .note.GNU-stack
                0x00000000        0x0 /alps/mprelease/MPload/ALPS.JB9.MP.V1.4_WINGTECH92_WET_JB9/source/alps.test/mediatek/platform/mt6592/preloader/src/security/auth/DaVerifyLib.a(sha1.o)
 .text          0x00000000        0x0 /alps/mprelease/MPload/ALPS.JB9.MP.V1.4_WINGTECH92_WET_JB9/source/alps.test/mediatek/platform/mt6592/preloader/src/security/auth/DaVerifyLib.a(stdlib.o)
 .data          0x00000000        0x0 /alps/mprelease/MPload/ALPS.JB9.MP.V1.4_WINGTECH92_WET_JB9/source/alps.test/mediatek/platform/mt6592/preloader/src/security/auth/DaVerifyLib.a(stdlib.o)
 .bss           0x00000000        0x0 /alps/mprelease/MPload/ALPS.JB9.MP.V1.4_WINGTECH92_WET_JB9/source/alps.test/mediatek/platform/mt6592/preloader/src/security/auth/DaVerifyLib.a(stdlib.o)
 .note.GNU-stack
                0x00000000        0x0 /alps/mprelease/MPload/ALPS.JB9.MP.V1.4_WINGTECH92_WET_JB9/source/alps.test/mediatek/platform/mt6592/preloader/src/security/auth/DaVerifyLib.a(stdlib.o)
 .text          0x00000000        0x0 /alps/mprelease/MPload/ALPS.JB9.MP.V1.4_WINGTECH92_WET_JB9/source/alps.test/mediatek/platform/mt6592/preloader/src/security/auth/DaVerifyLib.a(bgn_core.o)
 .data          0x00000000        0x0 /alps/mprelease/MPload/ALPS.JB9.MP.V1.4_WINGTECH92_WET_JB9/source/alps.test/mediatek/platform/mt6592/preloader/src/security/auth/DaVerifyLib.a(bgn_core.o)
 .bss           0x00000000        0x0 /alps/mprelease/MPload/ALPS.JB9.MP.V1.4_WINGTECH92_WET_JB9/source/alps.test/mediatek/platform/mt6592/preloader/src/security/auth/DaVerifyLib.a(bgn_core.o)
 .note.GNU-stack
                0x00000000        0x0 /alps/mprelease/MPload/ALPS.JB9.MP.V1.4_WINGTECH92_WET_JB9/source/alps.test/mediatek/platform/mt6592/preloader/src/security/auth/DaVerifyLib.a(bgn_core.o)
 .text          0x00000000        0x0 /alps/mprelease/MPload/ALPS.JB9.MP.V1.4_WINGTECH92_WET_JB9/source/alps.test/mediatek/platform/mt6592/preloader/src/security/auth/DaVerifyLib.a(montg.o)
 .data          0x00000000        0x0 /alps/mprelease/MPload/ALPS.JB9.MP.V1.4_WINGTECH92_WET_JB9/source/alps.test/mediatek/platform/mt6592/preloader/src/security/auth/DaVerifyLib.a(montg.o)
 .bss           0x00000000        0x0 /alps/mprelease/MPload/ALPS.JB9.MP.V1.4_WINGTECH92_WET_JB9/source/alps.test/mediatek/platform/mt6592/preloader/src/security/auth/DaVerifyLib.a(montg.o)
 .note.GNU-stack
                0x00000000        0x0 /alps/mprelease/MPload/ALPS.JB9.MP.V1.4_WINGTECH92_WET_JB9/source/alps.test/mediatek/platform/mt6592/preloader/src/security/auth/DaVerifyLib.a(montg.o)
 .text          0x00000000        0x0 /alps/mprelease/MPload/ALPS.JB9.MP.V1.4_WINGTECH92_WET_JB9/source/alps.test/mediatek/platform/mt6592/preloader/src/SecPlat.a(efuse.o)
 .data          0x00000000        0x0 /alps/mprelease/MPload/ALPS.JB9.MP.V1.4_WINGTECH92_WET_JB9/source/alps.test/mediatek/platform/mt6592/preloader/src/SecPlat.a(efuse.o)
 .bss           0x00000000        0x0 /alps/mprelease/MPload/ALPS.JB9.MP.V1.4_WINGTECH92_WET_JB9/source/alps.test/mediatek/platform/mt6592/preloader/src/SecPlat.a(efuse.o)
 .note.GNU-stack
                0x00000000        0x0 /alps/mprelease/MPload/ALPS.JB9.MP.V1.4_WINGTECH92_WET_JB9/source/alps.test/mediatek/platform/mt6592/preloader/src/SecPlat.a(efuse.o)
 .text          0x00000000        0x0 /alps/mprelease/MPload/ALPS.JB9.MP.V1.4_WINGTECH92_WET_JB9/source/alps.test/mediatek/platform/mt6592/preloader/src/SecPlat.a(meta.o)
 .data          0x00000000        0x0 /alps/mprelease/MPload/ALPS.JB9.MP.V1.4_WINGTECH92_WET_JB9/source/alps.test/mediatek/platform/mt6592/preloader/src/SecPlat.a(meta.o)
 .bss           0x00000000        0x0 /alps/mprelease/MPload/ALPS.JB9.MP.V1.4_WINGTECH92_WET_JB9/source/alps.test/mediatek/platform/mt6592/preloader/src/SecPlat.a(meta.o)
 .note.GNU-stack
                0x00000000        0x0 /alps/mprelease/MPload/ALPS.JB9.MP.V1.4_WINGTECH92_WET_JB9/source/alps.test/mediatek/platform/mt6592/preloader/src/SecPlat.a(meta.o)
 .text          0x00000000        0x0 /alps/mprelease/MPload/ALPS.JB9.MP.V1.4_WINGTECH92_WET_JB9/source/alps.test/mediatek/platform/mt6592/preloader/src/SecPlat.a(seclib_region.o)
 .data          0x00000000        0x0 /alps/mprelease/MPload/ALPS.JB9.MP.V1.4_WINGTECH92_WET_JB9/source/alps.test/mediatek/platform/mt6592/preloader/src/SecPlat.a(seclib_region.o)
 .bss           0x00000000        0x0 /alps/mprelease/MPload/ALPS.JB9.MP.V1.4_WINGTECH92_WET_JB9/source/alps.test/mediatek/platform/mt6592/preloader/src/SecPlat.a(seclib_region.o)
 .note.GNU-stack
                0x00000000        0x0 /alps/mprelease/MPload/ALPS.JB9.MP.V1.4_WINGTECH92_WET_JB9/source/alps.test/mediatek/platform/mt6592/preloader/src/SecPlat.a(seclib_region.o)
 .text          0x00000000        0x0 /alps/mprelease/MPload/ALPS.JB9.MP.V1.4_WINGTECH92_WET_JB9/source/alps.test/mediatek/platform/mt6592/preloader/src/SecPlat.a(sej_hk.o)
 .data          0x00000000        0x0 /alps/mprelease/MPload/ALPS.JB9.MP.V1.4_WINGTECH92_WET_JB9/source/alps.test/mediatek/platform/mt6592/preloader/src/SecPlat.a(sej_hk.o)
 .bss           0x00000000        0x0 /alps/mprelease/MPload/ALPS.JB9.MP.V1.4_WINGTECH92_WET_JB9/source/alps.test/mediatek/platform/mt6592/preloader/src/SecPlat.a(sej_hk.o)
 .rodata.g_AC_BOOTROM_SWOTP
                0x00000000       0x20 /alps/mprelease/MPload/ALPS.JB9.MP.V1.4_WINGTECH92_WET_JB9/source/alps.test/mediatek/platform/mt6592/preloader/src/SecPlat.a(sej_hk.o)
 .note.GNU-stack
                0x00000000        0x0 /alps/mprelease/MPload/ALPS.JB9.MP.V1.4_WINGTECH92_WET_JB9/source/alps.test/mediatek/platform/mt6592/preloader/src/SecPlat.a(sej_hk.o)
 .text          0x00000000        0x0 /alps/mprelease/MPload/ALPS.JB9.MP.V1.4_WINGTECH92_WET_JB9/source/alps.test/mediatek/platform/mt6592/preloader/src/SecPlat.a(sej_sk.o)
 .data          0x00000000        0x0 /alps/mprelease/MPload/ALPS.JB9.MP.V1.4_WINGTECH92_WET_JB9/source/alps.test/mediatek/platform/mt6592/preloader/src/SecPlat.a(sej_sk.o)
 .bss           0x00000000        0x0 /alps/mprelease/MPload/ALPS.JB9.MP.V1.4_WINGTECH92_WET_JB9/source/alps.test/mediatek/platform/mt6592/preloader/src/SecPlat.a(sej_sk.o)
 .note.GNU-stack
                0x00000000        0x0 /alps/mprelease/MPload/ALPS.JB9.MP.V1.4_WINGTECH92_WET_JB9/source/alps.test/mediatek/platform/mt6592/preloader/src/SecPlat.a(sej_sk.o)

Memory map

 ** file header
                0x00102000       0x34
 ** segment headers
                0x00102034       0x80

.bss            0x00102180     0x8084
 .bss.blkdev_list
                0x00102180        0x4 /alps/mprelease/MPload/ALPS.JB9.MP.V1.4_WINGTECH92_WET_JB9/source/alps.test/mediatek/preloader/out/blkdev.o
 .bss.g_usb_input_buf
                0x00102184      0x400 /alps/mprelease/MPload/ALPS.JB9.MP.V1.4_WINGTECH92_WET_JB9/source/alps.test/mediatek/preloader/out/circbuf.o
 .bss.g_usb_output_buf
                0x00102584      0x400 /alps/mprelease/MPload/ALPS.JB9.MP.V1.4_WINGTECH92_WET_JB9/source/alps.test/mediatek/preloader/out/circbuf.o
 .bss.g_da_verified
                0x00102984        0x1 /alps/mprelease/MPload/ALPS.JB9.MP.V1.4_WINGTECH92_WET_JB9/source/alps.test/mediatek/preloader/out/download.o
                0x00102984                g_da_verified
 .bss.dlcomport
                0x00102988        0x4 /alps/mprelease/MPload/ALPS.JB9.MP.V1.4_WINGTECH92_WET_JB9/source/alps.test/mediatek/preloader/out/download.o
 .bss.g_dram_buf
                0x0010298c        0x4 /alps/mprelease/MPload/ALPS.JB9.MP.V1.4_WINGTECH92_WET_JB9/source/alps.test/mediatek/preloader/out/dram_buffer.o
                0x0010298c                g_dram_buf
 .bss.opt_tx_dqs
                0x00102990        0x4 /alps/mprelease/MPload/ALPS.JB9.MP.V1.4_WINGTECH92_WET_JB9/source/alps.test/mediatek/preloader/out/dramc_calib.o
                0x00102990                opt_tx_dqs
 .bss.opt_tx_dqm
                0x00102994        0x4 /alps/mprelease/MPload/ALPS.JB9.MP.V1.4_WINGTECH92_WET_JB9/source/alps.test/mediatek/preloader/out/dramc_calib.o
                0x00102994                opt_tx_dqm
 .bss.DQS_PRINT
                0x00102998        0x4 /alps/mprelease/MPload/ALPS.JB9.MP.V1.4_WINGTECH92_WET_JB9/source/alps.test/mediatek/preloader/out/dramc_calib.o
                0x00102998                DQS_PRINT
 .bss.opt_rx_dqs0
                0x0010299c        0x4 /alps/mprelease/MPload/ALPS.JB9.MP.V1.4_WINGTECH92_WET_JB9/source/alps.test/mediatek/preloader/out/dramc_calib.o
                0x0010299c                opt_rx_dqs0
 .bss.opt_tx_dq
                0x001029a0       0x10 /alps/mprelease/MPload/ALPS.JB9.MP.V1.4_WINGTECH92_WET_JB9/source/alps.test/mediatek/preloader/out/dramc_calib.o
                0x001029a0                opt_tx_dq
 .bss.opt_rx_dqs1
                0x001029b0        0x4 /alps/mprelease/MPload/ALPS.JB9.MP.V1.4_WINGTECH92_WET_JB9/source/alps.test/mediatek/preloader/out/dramc_calib.o
                0x001029b0                opt_rx_dqs1
 .bss.RANK_CURR
                0x001029b4        0x4 /alps/mprelease/MPload/ALPS.JB9.MP.V1.4_WINGTECH92_WET_JB9/source/alps.test/mediatek/preloader/out/dramc_calib.o
                0x001029b4                RANK_CURR
 .bss.dle_result
                0x001029b8       0x40 /alps/mprelease/MPload/ALPS.JB9.MP.V1.4_WINGTECH92_WET_JB9/source/alps.test/mediatek/preloader/out/dramc_dle_cal.o
                0x001029b8                dle_result
 .bss.global_dle_value
                0x001029f8        0x4 /alps/mprelease/MPload/ALPS.JB9.MP.V1.4_WINGTECH92_WET_JB9/source/alps.test/mediatek/preloader/out/dramc_dle_cal.o
 .bss.opt_gw_fine_value1
                0x001029fc        0x4 /alps/mprelease/MPload/ALPS.JB9.MP.V1.4_WINGTECH92_WET_JB9/source/alps.test/mediatek/preloader/out/dramc_dqs_gw.o
                0x001029fc                opt_gw_fine_value1
 .bss.max_pwin  0x00102a00        0xc /alps/mprelease/MPload/ALPS.JB9.MP.V1.4_WINGTECH92_WET_JB9/source/alps.test/mediatek/preloader/out/dramc_dqs_gw.o
 .bss.dqs_gw_fine
                0x00102a0c        0x4 /alps/mprelease/MPload/ALPS.JB9.MP.V1.4_WINGTECH92_WET_JB9/source/alps.test/mediatek/preloader/out/dramc_dqs_gw.o
 .bss.opt_gw_coarse_value
                0x00102a10        0x4 /alps/mprelease/MPload/ALPS.JB9.MP.V1.4_WINGTECH92_WET_JB9/source/alps.test/mediatek/preloader/out/dramc_dqs_gw.o
                0x00102a10                opt_gw_coarse_value
 .bss.opt_gw_fine_value
                0x00102a14        0x4 /alps/mprelease/MPload/ALPS.JB9.MP.V1.4_WINGTECH92_WET_JB9/source/alps.test/mediatek/preloader/out/dramc_dqs_gw.o
                0x00102a14                opt_gw_fine_value
 .bss.high_score
                0x00102a18        0x4 /alps/mprelease/MPload/ALPS.JB9.MP.V1.4_WINGTECH92_WET_JB9/source/alps.test/mediatek/preloader/out/dramc_dqs_gw.o
                0x00102a18                high_score
 .bss.opt_gw_coarse_value0
                0x00102a1c        0x4 /alps/mprelease/MPload/ALPS.JB9.MP.V1.4_WINGTECH92_WET_JB9/source/alps.test/mediatek/preloader/out/dramc_dqs_gw.o
                0x00102a1c                opt_gw_coarse_value0
 .bss.score     0x00102a20        0x4 /alps/mprelease/MPload/ALPS.JB9.MP.V1.4_WINGTECH92_WET_JB9/source/alps.test/mediatek/preloader/out/dramc_dqs_gw.o
                0x00102a20                score
 .bss.opt_gw_coarse_value1
                0x00102a24        0x4 /alps/mprelease/MPload/ALPS.JB9.MP.V1.4_WINGTECH92_WET_JB9/source/alps.test/mediatek/preloader/out/dramc_dqs_gw.o
                0x00102a24                opt_gw_coarse_value1
 .bss.dqs_gw    0x00102a28       0x80 /alps/mprelease/MPload/ALPS.JB9.MP.V1.4_WINGTECH92_WET_JB9/source/alps.test/mediatek/preloader/out/dramc_dqs_gw.o
 .bss.dqs_gw_coarse
                0x00102aa8        0x4 /alps/mprelease/MPload/ALPS.JB9.MP.V1.4_WINGTECH92_WET_JB9/source/alps.test/mediatek/preloader/out/dramc_dqs_gw.o
 .bss.cur_pwin  0x00102aac        0xc /alps/mprelease/MPload/ALPS.JB9.MP.V1.4_WINGTECH92_WET_JB9/source/alps.test/mediatek/preloader/out/dramc_dqs_gw.o
 .bss.opt_gw_fine_value0
                0x00102ab8        0x4 /alps/mprelease/MPload/ALPS.JB9.MP.V1.4_WINGTECH92_WET_JB9/source/alps.test/mediatek/preloader/out/dramc_dqs_gw.o
                0x00102ab8                opt_gw_fine_value0
 .bss.drvn      0x00102abc        0x4 /alps/mprelease/MPload/ALPS.JB9.MP.V1.4_WINGTECH92_WET_JB9/source/alps.test/mediatek/preloader/out/emi.o
                0x00102abc                drvn
 .bss.drvp      0x00102ac0        0x4 /alps/mprelease/MPload/ALPS.JB9.MP.V1.4_WINGTECH92_WET_JB9/source/alps.test/mediatek/preloader/out/emi.o
                0x00102ac0                drvp
 .bss.id        0x00102ac4       0x16 /alps/mprelease/MPload/ALPS.JB9.MP.V1.4_WINGTECH92_WET_JB9/source/alps.test/mediatek/preloader/out/emi.o
 .bss.ddr3_1333_enable
                0x00102adc        0x4 /alps/mprelease/MPload/ALPS.JB9.MP.V1.4_WINGTECH92_WET_JB9/source/alps.test/mediatek/preloader/out/emi.o
                0x00102adc                ddr3_1333_enable
 .bss.DDR_type  0x00102ae0        0x4 /alps/mprelease/MPload/ALPS.JB9.MP.V1.4_WINGTECH92_WET_JB9/source/alps.test/mediatek/preloader/out/emi.o
                0x00102ae0                DDR_type
 .bss.enable_combo_dis
                0x00102ae4        0x4 /alps/mprelease/MPload/ALPS.JB9.MP.V1.4_WINGTECH92_WET_JB9/source/alps.test/mediatek/preloader/out/emi.o
 .bss.found.1449
                0x00102ae8        0x4 /alps/mprelease/MPload/ALPS.JB9.MP.V1.4_WINGTECH92_WET_JB9/source/alps.test/mediatek/preloader/out/emi.o
 .bss.fw_id_len
                0x00102aec        0x4 /alps/mprelease/MPload/ALPS.JB9.MP.V1.4_WINGTECH92_WET_JB9/source/alps.test/mediatek/preloader/out/emi.o
 .bss.g_meta_ready_start_time
                0x00102af0        0x4 /alps/mprelease/MPload/ALPS.JB9.MP.V1.4_WINGTECH92_WET_JB9/source/alps.test/mediatek/preloader/out/handshake_uart.o
 .bss.i2c_port  0x00102af4       0x70 /alps/mprelease/MPload/ALPS.JB9.MP.V1.4_WINGTECH92_WET_JB9/source/alps.test/mediatek/preloader/out/i2c.o
                0x00102af4                i2c_port
 .bss.I2C_TIMING_REG_BACKUP
                0x00102b64       0x1c /alps/mprelease/MPload/ALPS.JB9.MP.V1.4_WINGTECH92_WET_JB9/source/alps.test/mediatek/preloader/out/i2c.o
                0x00102b64                I2C_TIMING_REG_BACKUP
 .bss.mode.1650
                0x00102b80        0x4 /alps/mprelease/MPload/ALPS.JB9.MP.V1.4_WINGTECH92_WET_JB9/source/alps.test/mediatek/preloader/out/i2c.o
 .bss.khz.1651  0x00102b84        0x4 /alps/mprelease/MPload/ALPS.JB9.MP.V1.4_WINGTECH92_WET_JB9/source/alps.test/mediatek/preloader/out/i2c.o
 .bss.g_addr_trans_tbl
                0x00102b88        0x8 /alps/mprelease/MPload/ALPS.JB9.MP.V1.4_WINGTECH92_WET_JB9/source/alps.test/mediatek/preloader/out/mmc_common_inter.o
 .bss.g_emmc_user_size
                0x00102b90        0x8 /alps/mprelease/MPload/ALPS.JB9.MP.V1.4_WINGTECH92_WET_JB9/source/alps.test/mediatek/preloader/out/mmc_common_inter.o
                0x00102b90                g_emmc_user_size
 .bss.g_emmc_size
                0x00102b98        0x8 /alps/mprelease/MPload/ALPS.JB9.MP.V1.4_WINGTECH92_WET_JB9/source/alps.test/mediatek/preloader/out/mmc_common_inter.o
                0x00102b98                g_emmc_size
 .bss.g_mmc_bdev
                0x00102ba0       0x28 /alps/mprelease/MPload/ALPS.JB9.MP.V1.4_WINGTECH92_WET_JB9/source/alps.test/mediatek/preloader/out/mmc_common_inter.o
 .bss.g_emmc_addr_trans
                0x00102bc8       0x90 /alps/mprelease/MPload/ALPS.JB9.MP.V1.4_WINGTECH92_WET_JB9/source/alps.test/mediatek/preloader/out/mmc_common_inter.o
 .bss.sd_card   0x00102c58      0x5b0 /alps/mprelease/MPload/ALPS.JB9.MP.V1.4_WINGTECH92_WET_JB9/source/alps.test/mediatek/preloader/out/mmc_core.o
 .bss.sd_host   0x00103208       0xc0 /alps/mprelease/MPload/ALPS.JB9.MP.V1.4_WINGTECH92_WET_JB9/source/alps.test/mediatek/preloader/out/mmc_core.o
 .bss.msdc_priv
                0x001032c8       0xe0 /alps/mprelease/MPload/ALPS.JB9.MP.V1.4_WINGTECH92_WET_JB9/source/alps.test/mediatek/preloader/out/msdc.o
 .bss.tempart   0x001033a8       0x20 /alps/mprelease/MPload/ALPS.JB9.MP.V1.4_WINGTECH92_WET_JB9/source/alps.test/mediatek/preloader/out/partition.o
 .bss.g_boot_mode
                0x001033c8        0x4 /alps/mprelease/MPload/ALPS.JB9.MP.V1.4_WINGTECH92_WET_JB9/source/alps.test/mediatek/preloader/out/platform.o
                0x001033c8                g_boot_mode
 .bss.g_boot_time
                0x001033cc        0x4 /alps/mprelease/MPload/ALPS.JB9.MP.V1.4_WINGTECH92_WET_JB9/source/alps.test/mediatek/preloader/out/platform.o
                0x001033cc                g_boot_time
 .bss.kpoc_flag
                0x001033d0        0x4 /alps/mprelease/MPload/ALPS.JB9.MP.V1.4_WINGTECH92_WET_JB9/source/alps.test/mediatek/preloader/out/platform.o
                0x001033d0                kpoc_flag
 .bss.uart_mode
                0x001033d4        0x4 /alps/mprelease/MPload/ALPS.JB9.MP.V1.4_WINGTECH92_WET_JB9/source/alps.test/mediatek/preloader/out/platform.o
                0x001033d4                uart_mode
 .bss.g_boot_reason
                0x001033d8        0x4 /alps/mprelease/MPload/ALPS.JB9.MP.V1.4_WINGTECH92_WET_JB9/source/alps.test/mediatek/preloader/out/platform.o
                0x001033d8                g_boot_reason
 .bss.g_ddr_reserve_enable
                0x001033dc        0x4 /alps/mprelease/MPload/ALPS.JB9.MP.V1.4_WINGTECH92_WET_JB9/source/alps.test/mediatek/preloader/out/platform.o
                0x001033dc                g_ddr_reserve_enable
 .bss.g_ddr_reserve_success
                0x001033e0        0x4 /alps/mprelease/MPload/ALPS.JB9.MP.V1.4_WINGTECH92_WET_JB9/source/alps.test/mediatek/preloader/out/platform.o
                0x001033e0                g_ddr_reserve_success
 .bss.g_meta_com_type
                0x001033e4        0x4 /alps/mprelease/MPload/ALPS.JB9.MP.V1.4_WINGTECH92_WET_JB9/source/alps.test/mediatek/preloader/out/platform.o
                0x001033e4                g_meta_com_type
 .bss.sys_stack
                0x001033e8      0xc00 /alps/mprelease/MPload/ALPS.JB9.MP.V1.4_WINGTECH92_WET_JB9/source/alps.test/mediatek/preloader/out/platform.o
                0x001033e8                sys_stack
 .bss.g_meta_com_id
                0x00103fe8        0x4 /alps/mprelease/MPload/ALPS.JB9.MP.V1.4_WINGTECH92_WET_JB9/source/alps.test/mediatek/preloader/out/platform.o
                0x00103fe8                g_meta_com_id
 .bss.mt6333_i2c
                0x00103fec       0x48 /alps/mprelease/MPload/ALPS.JB9.MP.V1.4_WINGTECH92_WET_JB9/source/alps.test/mediatek/preloader/out/pmic_6333.o
 .bss.g_charger_in_flag
                0x00104034        0x4 /alps/mprelease/MPload/ALPS.JB9.MP.V1.4_WINGTECH92_WET_JB9/source/alps.test/mediatek/preloader/out/pmic.o
                0x00104034                g_charger_in_flag
 .bss.g_ret     0x00104038        0x4 /alps/mprelease/MPload/ALPS.JB9.MP.V1.4_WINGTECH92_WET_JB9/source/alps.test/mediatek/preloader/out/pmic.o
                0x00104038                g_ret
 .bss.g_first_check
                0x0010403c        0x4 /alps/mprelease/MPload/ALPS.JB9.MP.V1.4_WINGTECH92_WET_JB9/source/alps.test/mediatek/preloader/out/pmic.o
                0x0010403c                g_first_check
 .bss.log_end   0x00104040        0x4 /alps/mprelease/MPload/ALPS.JB9.MP.V1.4_WINGTECH92_WET_JB9/source/alps.test/mediatek/preloader/out/print.o
                0x00104040                log_end
 .bss.log_sram_buf
                0x00104044     0x5000 /alps/mprelease/MPload/ALPS.JB9.MP.V1.4_WINGTECH92_WET_JB9/source/alps.test/mediatek/preloader/out/print.o
 .bss.log_hdr   0x00109044        0x4 /alps/mprelease/MPload/ALPS.JB9.MP.V1.4_WINGTECH92_WET_JB9/source/alps.test/mediatek/preloader/out/print.o
                0x00109044                log_hdr
 .bss.log_ptr   0x00109048        0x4 /alps/mprelease/MPload/ALPS.JB9.MP.V1.4_WINGTECH92_WET_JB9/source/alps.test/mediatek/preloader/out/print.o
                0x00109048                log_ptr
 .bss.g_log_miss_chrs
                0x0010904c        0x4 /alps/mprelease/MPload/ALPS.JB9.MP.V1.4_WINGTECH92_WET_JB9/source/alps.test/mediatek/preloader/out/print.o
 .bss.g_log_disable
                0x00109050        0x4 /alps/mprelease/MPload/ALPS.JB9.MP.V1.4_WINGTECH92_WET_JB9/source/alps.test/mediatek/preloader/out/print.o
 .bss.g_rtc_2sec_stat
                0x00109054        0x1 /alps/mprelease/MPload/ALPS.JB9.MP.V1.4_WINGTECH92_WET_JB9/source/alps.test/mediatek/preloader/out/rtc.o
 .bss.recovery_flag
                0x00109055        0x1 /alps/mprelease/MPload/ALPS.JB9.MP.V1.4_WINGTECH92_WET_JB9/source/alps.test/mediatek/preloader/out/rtc.o
 .bss.save_stat.1557
                0x00109056        0x1 /alps/mprelease/MPload/ALPS.JB9.MP.V1.4_WINGTECH92_WET_JB9/source/alps.test/mediatek/preloader/out/rtc.o
 .bss.g_SBC_PUBK
                0x00109058      0x200 /alps/mprelease/MPload/ALPS.JB9.MP.V1.4_WINGTECH92_WET_JB9/source/alps.test/mediatek/preloader/out/sec_key.o
                0x00109058                g_SBC_PUBK
 .bss.sec_cfg_info
                0x00109258        0xc /alps/mprelease/MPload/ALPS.JB9.MP.V1.4_WINGTECH92_WET_JB9/source/alps.test/mediatek/preloader/out/sec.o
                0x00109258                sec_cfg_info
 .bss.secroimg  0x00109264        0x4 /alps/mprelease/MPload/ALPS.JB9.MP.V1.4_WINGTECH92_WET_JB9/source/alps.test/mediatek/preloader/out/sec_secroimg.o
                0x00109264                secroimg
 .bss.bDumpPartInfo
                0x00109268        0x1 /alps/mprelease/MPload/ALPS.JB9.MP.V1.4_WINGTECH92_WET_JB9/source/alps.test/mediatek/preloader/out/sec_util.o
                0x00109268                bDumpPartInfo
 .bss.bUsbHandshakeSuccess
                0x00109269        0x1 /alps/mprelease/MPload/ALPS.JB9.MP.V1.4_WINGTECH92_WET_JB9/source/alps.test/mediatek/preloader/out/sec_util.o
 .bss.timestamp
                0x0010926c        0x4 /alps/mprelease/MPload/ALPS.JB9.MP.V1.4_WINGTECH92_WET_JB9/source/alps.test/mediatek/preloader/out/timer.o
 .bss.lastinc   0x00109270        0x4 /alps/mprelease/MPload/ALPS.JB9.MP.V1.4_WINGTECH92_WET_JB9/source/alps.test/mediatek/preloader/out/timer.o
 .bss.set_address
                0x00109274        0x4 /alps/mprelease/MPload/ALPS.JB9.MP.V1.4_WINGTECH92_WET_JB9/source/alps.test/mediatek/preloader/out/usbd.o
                0x00109274                set_address
 .bss.ep0_urb   0x00109278        0x4 /alps/mprelease/MPload/ALPS.JB9.MP.V1.4_WINGTECH92_WET_JB9/source/alps.test/mediatek/preloader/out/usbd.o
 .bss.g_usb_port_state
                0x0010927c        0x4 /alps/mprelease/MPload/ALPS.JB9.MP.V1.4_WINGTECH92_WET_JB9/source/alps.test/mediatek/preloader/out/usbd.o
                0x0010927c                g_usb_port_state
 .bss.udc_device
                0x00109280        0x4 /alps/mprelease/MPload/ALPS.JB9.MP.V1.4_WINGTECH92_WET_JB9/source/alps.test/mediatek/preloader/out/usbd.o
 .bss.ep0_state
                0x00109284        0x4 /alps/mprelease/MPload/ALPS.JB9.MP.V1.4_WINGTECH92_WET_JB9/source/alps.test/mediatek/preloader/out/usbd.o
                0x00109284                ep0_state
 .bss.g_usbphy_ok
                0x00109288        0x4 /alps/mprelease/MPload/ALPS.JB9.MP.V1.4_WINGTECH92_WET_JB9/source/alps.test/mediatek/preloader/out/usbd.o
                0x00109288                g_usbphy_ok
 .bss.mt6573_rx_urb
                0x0010928c      0x41c /alps/mprelease/MPload/ALPS.JB9.MP.V1.4_WINGTECH92_WET_JB9/source/alps.test/mediatek/preloader/out/usbtty.o
                0x0010928c                mt6573_rx_urb
 .bss.mt_usb_config
                0x001096a8        0xc /alps/mprelease/MPload/ALPS.JB9.MP.V1.4_WINGTECH92_WET_JB9/source/alps.test/mediatek/preloader/out/usbtty.o
 .bss.mt6573_ep0_urb
                0x001096b4      0x41c /alps/mprelease/MPload/ALPS.JB9.MP.V1.4_WINGTECH92_WET_JB9/source/alps.test/mediatek/preloader/out/usbtty.o
                0x001096b4                mt6573_ep0_urb
 .bss.mt_usb_comm_alternate_interface
                0x00109ad0       0x1c /alps/mprelease/MPload/ALPS.JB9.MP.V1.4_WINGTECH92_WET_JB9/source/alps.test/mediatek/preloader/out/usbtty.o
 .bss.mt_usb_ep
                0x00109aec       0x70 /alps/mprelease/MPload/ALPS.JB9.MP.V1.4_WINGTECH92_WET_JB9/source/alps.test/mediatek/preloader/out/usbtty.o
 .bss.usb_configured
                0x00109b5c        0x4 /alps/mprelease/MPload/ALPS.JB9.MP.V1.4_WINGTECH92_WET_JB9/source/alps.test/mediatek/preloader/out/usbtty.o
                0x00109b5c                usb_configured
 .bss.usb_string_table
                0x00109b60        0x4 /alps/mprelease/MPload/ALPS.JB9.MP.V1.4_WINGTECH92_WET_JB9/source/alps.test/mediatek/preloader/out/usbtty.o
                0x00109b60                usb_string_table
 .bss.usb_output_buffer
                0x00109b64       0x18 /alps/mprelease/MPload/ALPS.JB9.MP.V1.4_WINGTECH92_WET_JB9/source/alps.test/mediatek/preloader/out/usbtty.o
 .bss.commInterface
                0x00109b7c       0x40 /alps/mprelease/MPload/ALPS.JB9.MP.V1.4_WINGTECH92_WET_JB9/source/alps.test/mediatek/preloader/out/usbtty.o
 .bss.dataInterface
                0x00109bbc       0x2e /alps/mprelease/MPload/ALPS.JB9.MP.V1.4_WINGTECH92_WET_JB9/source/alps.test/mediatek/preloader/out/usbtty.o
 .bss.mt_usb_comm_interface
                0x00109bec        0x8 /alps/mprelease/MPload/ALPS.JB9.MP.V1.4_WINGTECH92_WET_JB9/source/alps.test/mediatek/preloader/out/usbtty.o
 .bss.mt6573_tx_urb
                0x00109bf4      0x41c /alps/mprelease/MPload/ALPS.JB9.MP.V1.4_WINGTECH92_WET_JB9/source/alps.test/mediatek/preloader/out/usbtty.o
                0x00109bf4                mt6573_tx_urb
 .bss.usb_input_buffer
                0x0010a010       0x18 /alps/mprelease/MPload/ALPS.JB9.MP.V1.4_WINGTECH92_WET_JB9/source/alps.test/mediatek/preloader/out/usbtty.o
 .bss.mt_usb_device
                0x0010a028       0x28 /alps/mprelease/MPload/ALPS.JB9.MP.V1.4_WINGTECH92_WET_JB9/source/alps.test/mediatek/preloader/out/usbtty.o
 .bss.mt_usb_data_alternate_interface
                0x0010a050       0x1c /alps/mprelease/MPload/ALPS.JB9.MP.V1.4_WINGTECH92_WET_JB9/source/alps.test/mediatek/preloader/out/usbtty.o
 .bss.configuration
                0x0010a06c       0x34 /alps/mprelease/MPload/ALPS.JB9.MP.V1.4_WINGTECH92_WET_JB9/source/alps.test/mediatek/preloader/out/usbtty.o
 .bss.product   0x0010a0a0       0x22 /alps/mprelease/MPload/ALPS.JB9.MP.V1.4_WINGTECH92_WET_JB9/source/alps.test/mediatek/preloader/out/usbtty.o
 .bss.manufacturer
                0x0010a0c2       0x12 /alps/mprelease/MPload/ALPS.JB9.MP.V1.4_WINGTECH92_WET_JB9/source/alps.test/mediatek/preloader/out/usbtty.o
 .bss.tool_exists
                0x0010a0d4        0x4 /alps/mprelease/MPload/ALPS.JB9.MP.V1.4_WINGTECH92_WET_JB9/source/alps.test/mediatek/preloader/out/usbtty.o
                0x0010a0d4                tool_exists
 .bss.mt_usb_interface
                0x0010a0d8        0x8 /alps/mprelease/MPload/ALPS.JB9.MP.V1.4_WINGTECH92_WET_JB9/source/alps.test/mediatek/preloader/out/usbtty.o
 .bss.mt_usb_data_interface
                0x0010a0e0        0x8 /alps/mprelease/MPload/ALPS.JB9.MP.V1.4_WINGTECH92_WET_JB9/source/alps.test/mediatek/preloader/out/usbtty.o
 .bss.g_rgu_status
                0x0010a0e8        0x4 /alps/mprelease/MPload/ALPS.JB9.MP.V1.4_WINGTECH92_WET_JB9/source/alps.test/mediatek/preloader/out/wdt.o
                0x0010a0e8                g_rgu_status
 .bss.reboot_from
                0x0010a0ec        0x4 /alps/mprelease/MPload/ALPS.JB9.MP.V1.4_WINGTECH92_WET_JB9/source/alps.test/mediatek/preloader/out/wdt.o
 .bss.rgu_mode  0x0010a0f0        0x4 /alps/mprelease/MPload/ALPS.JB9.MP.V1.4_WINGTECH92_WET_JB9/source/alps.test/mediatek/preloader/out/wdt.o
 .bss.status.1278
                0x0010a0f4        0x4 /alps/mprelease/MPload/ALPS.JB9.MP.V1.4_WINGTECH92_WET_JB9/source/alps.test/mediatek/preloader/out/wdt.o
 .bss.timeout   0x0010a0f8        0x4 /alps/mprelease/MPload/ALPS.JB9.MP.V1.4_WINGTECH92_WET_JB9/source/alps.test/mediatek/preloader/out/wdt.o
 .bss.g_sha1_time
                0x0010a0fc        0x4 /alps/mprelease/MPload/ALPS.JB9.MP.V1.4_WINGTECH92_WET_JB9/source/alps.test/mediatek/platform/mt6592/preloader/src/SecLib.a(seclib_img_hash.o)
                0x0010a0fc                g_sha1_time
 .bss.img_buf   0x0010a100        0x4 /alps/mprelease/MPload/ALPS.JB9.MP.V1.4_WINGTECH92_WET_JB9/source/alps.test/mediatek/platform/mt6592/preloader/src/SecLib.a(seclib_img_verify.o)
 .bss.chunk_buf
                0x0010a104        0x4 /alps/mprelease/MPload/ALPS.JB9.MP.V1.4_WINGTECH92_WET_JB9/source/alps.test/mediatek/platform/mt6592/preloader/src/SecLib.a(seclib_img_verify.o)
 .bss.img_buf_current_allocated
                0x0010a108        0x4 /alps/mprelease/MPload/ALPS.JB9.MP.V1.4_WINGTECH92_WET_JB9/source/alps.test/mediatek/platform/mt6592/preloader/src/SecLib.a(seclib_img_verify.o)
 .bss.g_cust    0x0010a10c        0x4 /alps/mprelease/MPload/ALPS.JB9.MP.V1.4_WINGTECH92_WET_JB9/source/alps.test/mediatek/platform/mt6592/preloader/src/SecLib.a(seclib.o)
                0x0010a10c                g_cust
 .bss.g_sec_cfg
                0x0010a110        0x4 /alps/mprelease/MPload/ALPS.JB9.MP.V1.4_WINGTECH92_WET_JB9/source/alps.test/mediatek/platform/mt6592/preloader/src/SecLib.a(seclib.o)
                0x0010a110                g_sec_cfg
 .bss.g_cust_name
                0x0010a114       0x20 /alps/mprelease/MPload/ALPS.JB9.MP.V1.4_WINGTECH92_WET_JB9/source/alps.test/mediatek/platform/mt6592/preloader/src/SecLib.a(seclib.o)
                0x0010a114                g_cust_name
 .bss.rsa       0x0010a134       0x5c /alps/mprelease/MPload/ALPS.JB9.MP.V1.4_WINGTECH92_WET_JB9/source/alps.test/mediatek/platform/mt6592/preloader/src/security/auth/DaVerifyLib.a(rsa.o)
                0x0010a134                rsa
 .bss.sha1sum   0x0010a190       0x14 /alps/mprelease/MPload/ALPS.JB9.MP.V1.4_WINGTECH92_WET_JB9/source/alps.test/mediatek/platform/mt6592/preloader/src/security/auth/DaVerifyLib.a(sha1.o)
                0x0010a190                sha1sum
 .bss.heap_start_addr
                0x0010a1a4        0x4 /alps/mprelease/MPload/ALPS.JB9.MP.V1.4_WINGTECH92_WET_JB9/source/alps.test/mediatek/platform/mt6592/preloader/src/security/auth/DaVerifyLib.a(stdlib.o)
                0x0010a1a4                heap_start_addr
 .bss.heap_max_size
                0x0010a1a8        0x4 /alps/mprelease/MPload/ALPS.JB9.MP.V1.4_WINGTECH92_WET_JB9/source/alps.test/mediatek/platform/mt6592/preloader/src/security/auth/DaVerifyLib.a(stdlib.o)
                0x0010a1a8                heap_max_size
 .bss.heap_current_alloc
                0x0010a1ac        0x4 /alps/mprelease/MPload/ALPS.JB9.MP.V1.4_WINGTECH92_WET_JB9/source/alps.test/mediatek/platform/mt6592/preloader/src/security/auth/DaVerifyLib.a(stdlib.o)
                0x0010a1ac                heap_current_alloc
 .bss.sej_ctx   0x0010a1b0       0x54 /alps/mprelease/MPload/ALPS.JB9.MP.V1.4_WINGTECH92_WET_JB9/source/alps.test/mediatek/platform/mt6592/preloader/src/SecPlat.a(sej_sk.o)

.start          0x00201000      0x1d8
 .text.start    0xffffffffffffffff      0x1d0 /alps/mprelease/MPload/ALPS.JB9.MP.V1.4_WINGTECH92_WET_JB9/source/alps.test/mediatek/preloader/out/init.o
                0x00201000                _start
                0x002010c8                jump
                0x002010d4                apmcu_icache_invalidate
                0x002010e0                apmcu_dcache_clean_invalidate
                0x0020117c                apmcu_dsb
                0x00201184                apmcu_isb
                0x0020118c                apmcu_disable_dcache
                0x0020119c                apmcu_disable_icache
                0x002011b4                apmcu_disable_smp

.rom_info       0x002011fc      0x3c0
 .data.rom_info
                0x002011fc      0x3c0 /alps/mprelease/MPload/ALPS.JB9.MP.V1.4_WINGTECH92_WET_JB9/source/alps.test/mediatek/preloader/out/sec_rom_info.o
                0x002011fc                g_ROM_INFO

.text           0x002015c0    0x17924
 .text          0x002015c0      0x140 /alps/mprelease/MPload/ALPS.JB9.MP.V1.4_WINGTECH92_WET_JB9/source/alps.test/mediatek/preloader/out/eabi_idiv.o
                0x002015c0                __divsi3
                0x002015c0                __aeabi_idiv
 .text          0x00201700       0xc8 /alps/mprelease/MPload/ALPS.JB9.MP.V1.4_WINGTECH92_WET_JB9/source/alps.test/mediatek/preloader/out/eabi.o
                0x00201700                __udivsi3
                0x00201700                __aeabi_uidiv
                0x00201798                __aeabi_uidivmod
                0x002017b0                __aeabi_idivmod
 .text          0x002017c8      0x14c /alps/mprelease/MPload/ALPS.JB9.MP.V1.4_WINGTECH92_WET_JB9/source/alps.test/mediatek/preloader/out/eabi_uldivmod.o
                0x002017c8                __aeabi_uldivmod
 .text.blkdev_register
                0x00201914       0x28 /alps/mprelease/MPload/ALPS.JB9.MP.V1.4_WINGTECH92_WET_JB9/source/alps.test/mediatek/preloader/out/blkdev.o
                0x00201915                blkdev_register
 .text.blkdev_get
                0x0020193c       0x20 /alps/mprelease/MPload/ALPS.JB9.MP.V1.4_WINGTECH92_WET_JB9/source/alps.test/mediatek/preloader/out/blkdev.o
                0x0020193d                blkdev_get
 .text.blkdev_read
                0x0020195c      0x1f0 /alps/mprelease/MPload/ALPS.JB9.MP.V1.4_WINGTECH92_WET_JB9/source/alps.test/mediatek/preloader/out/blkdev.o
                0x0020195d                blkdev_read
 .text.blkdev_write
                0x00201b4c      0x220 /alps/mprelease/MPload/ALPS.JB9.MP.V1.4_WINGTECH92_WET_JB9/source/alps.test/mediatek/preloader/out/blkdev.o
                0x00201b4d                blkdev_write
 .text.buf_input_init
                0x00201d6c       0x4c /alps/mprelease/MPload/ALPS.JB9.MP.V1.4_WINGTECH92_WET_JB9/source/alps.test/mediatek/preloader/out/circbuf.o
                0x00201d6d                buf_input_init
 .text.buf_output_init
                0x00201db8       0x4c /alps/mprelease/MPload/ALPS.JB9.MP.V1.4_WINGTECH92_WET_JB9/source/alps.test/mediatek/preloader/out/circbuf.o
                0x00201db9                buf_output_init
 .text.buf_pop  0x00201e04       0x34 /alps/mprelease/MPload/ALPS.JB9.MP.V1.4_WINGTECH92_WET_JB9/source/alps.test/mediatek/preloader/out/circbuf.o
                0x00201e05                buf_pop
 .text.buf_push
                0x00201e38       0x2a /alps/mprelease/MPload/ALPS.JB9.MP.V1.4_WINGTECH92_WET_JB9/source/alps.test/mediatek/preloader/out/circbuf.o
                0x00201e39                buf_push
 .text.cust_part_init
                0x00201e62        0x2 /alps/mprelease/MPload/ALPS.JB9.MP.V1.4_WINGTECH92_WET_JB9/source/alps.test/mediatek/preloader/out/cust_part.o
                0x00201e63                cust_part_init
 .text.cust_part_tbl
                0x00201e64        0xc /alps/mprelease/MPload/ALPS.JB9.MP.V1.4_WINGTECH92_WET_JB9/source/alps.test/mediatek/preloader/out/cust_part.o
                0x00201e65                cust_part_tbl
 .text.uffs.part.0
                0x00201e70       0x2e /alps/mprelease/MPload/ALPS.JB9.MP.V1.4_WINGTECH92_WET_JB9/source/alps.test/mediatek/preloader/out/device_apc.o
 .text.device_APC_dom_setup
                0x00201ea0       0xb8 /alps/mprelease/MPload/ALPS.JB9.MP.V1.4_WINGTECH92_WET_JB9/source/alps.test/mediatek/preloader/out/device_apc.o
                0x00201ea1                device_APC_dom_setup
 .text.__div0   0x00201f58       0x18 /alps/mprelease/MPload/ALPS.JB9.MP.V1.4_WINGTECH92_WET_JB9/source/alps.test/mediatek/preloader/out/div0.o
                0x00201f59                __div0
 .text.usbdl_put_word
                0x00201f70       0x24 /alps/mprelease/MPload/ALPS.JB9.MP.V1.4_WINGTECH92_WET_JB9/source/alps.test/mediatek/preloader/out/download.o
 .text.usbdl_put_dword
                0x00201f94       0x30 /alps/mprelease/MPload/ALPS.JB9.MP.V1.4_WINGTECH92_WET_JB9/source/alps.test/mediatek/preloader/out/download.o
 .text.usbdl_get_word
                0x00201fc4       0x2c /alps/mprelease/MPload/ALPS.JB9.MP.V1.4_WINGTECH92_WET_JB9/source/alps.test/mediatek/preloader/out/download.o
 .text.usbdl_get_dword
                0x00201ff0       0x38 /alps/mprelease/MPload/ALPS.JB9.MP.V1.4_WINGTECH92_WET_JB9/source/alps.test/mediatek/preloader/out/download.o
 .text.usbdl_read16
                0x00202028       0x74 /alps/mprelease/MPload/ALPS.JB9.MP.V1.4_WINGTECH92_WET_JB9/source/alps.test/mediatek/preloader/out/download.o
 .text.usbdl_write16
                0x0020209c       0x8a /alps/mprelease/MPload/ALPS.JB9.MP.V1.4_WINGTECH92_WET_JB9/source/alps.test/mediatek/preloader/out/download.o
 .text.usbdl_handler
                0x00202128      0x54c /alps/mprelease/MPload/ALPS.JB9.MP.V1.4_WINGTECH92_WET_JB9/source/alps.test/mediatek/preloader/out/download.o
                0x00202129                usbdl_handler
 .text.init_dram_buffer
                0x00202674       0x78 /alps/mprelease/MPload/ALPS.JB9.MP.V1.4_WINGTECH92_WET_JB9/source/alps.test/mediatek/preloader/out/dram_buffer.o
                0x00202675                init_dram_buffer
 .text.calib_cmd_addr_output_dly_factor_handler
                0x002026ec      0x100 /alps/mprelease/MPload/ALPS.JB9.MP.V1.4_WINGTECH92_WET_JB9/source/alps.test/mediatek/preloader/out/dramc_calib.o
 .text.do_sw_rx_dq_dqs_calib
                0x002027ec      0x5c4 /alps/mprelease/MPload/ALPS.JB9.MP.V1.4_WINGTECH92_WET_JB9/source/alps.test/mediatek/preloader/out/dramc_calib.o
                0x002027ed                do_sw_rx_dq_dqs_calib
 .text.do_sw_tx_dq_dqs_calib
                0x00202db0      0x740 /alps/mprelease/MPload/ALPS.JB9.MP.V1.4_WINGTECH92_WET_JB9/source/alps.test/mediatek/preloader/out/dramc_calib.o
                0x00202db1                do_sw_tx_dq_dqs_calib
 .text.dramc_calib
                0x002034f0      0x254 /alps/mprelease/MPload/ALPS.JB9.MP.V1.4_WINGTECH92_WET_JB9/source/alps.test/mediatek/preloader/out/dramc_calib.o
                0x002034f1                dramc_calib
 .text.dramc_dma_test
                0x00203744       0x74 /alps/mprelease/MPload/ALPS.JB9.MP.V1.4_WINGTECH92_WET_JB9/source/alps.test/mediatek/preloader/out/dramc_dle_cal.o
                0x00203745                dramc_dma_test
 .text.ett_print_dle_before_each_round_of_loop_zero
                0x002037b8        0x2 /alps/mprelease/MPload/ALPS.JB9.MP.V1.4_WINGTECH92_WET_JB9/source/alps.test/mediatek/preloader/out/dramc_dle_cal.o
                0x002037b9                ett_print_dle_before_each_round_of_loop_zero
 .text.ett_print_dle_after_each_round_of_loop_zero
                0x002037ba       0x10 /alps/mprelease/MPload/ALPS.JB9.MP.V1.4_WINGTECH92_WET_JB9/source/alps.test/mediatek/preloader/out/dramc_dle_cal.o
                0x002037bb                ett_print_dle_after_each_round_of_loop_zero
 .text.ett_calc_dle_opt_value
                0x002037ca        0x2 /alps/mprelease/MPload/ALPS.JB9.MP.V1.4_WINGTECH92_WET_JB9/source/alps.test/mediatek/preloader/out/dramc_dle_cal.o
                0x002037cb                ett_calc_dle_opt_value
 .text.ett_print_dle_after_finish_loop_n
                0x002037cc       0x10 /alps/mprelease/MPload/ALPS.JB9.MP.V1.4_WINGTECH92_WET_JB9/source/alps.test/mediatek/preloader/out/dramc_dle_cal.o
                0x002037cd                ett_print_dle_after_finish_loop_n
 .text.ett_print_dle_before_start_loop_zero
                0x002037dc       0x24 /alps/mprelease/MPload/ALPS.JB9.MP.V1.4_WINGTECH92_WET_JB9/source/alps.test/mediatek/preloader/out/dramc_dle_cal.o
                0x002037dd                ett_print_dle_before_start_loop_zero
 .text.dle_factor_handler
                0x00203800       0xa0 /alps/mprelease/MPload/ALPS.JB9.MP.V1.4_WINGTECH92_WET_JB9/source/alps.test/mediatek/preloader/out/dramc_dle_cal.o
                0x00203801                dle_factor_handler
 .text.ett_print_dle_result
                0x002038a0       0x6c /alps/mprelease/MPload/ALPS.JB9.MP.V1.4_WINGTECH92_WET_JB9/source/alps.test/mediatek/preloader/out/dramc_dle_cal.o
                0x002038a1                ett_print_dle_result
 .text.ett_print_dle_banner
                0x0020390c       0x60 /alps/mprelease/MPload/ALPS.JB9.MP.V1.4_WINGTECH92_WET_JB9/source/alps.test/mediatek/preloader/out/dramc_dle_cal.o
                0x0020390d                ett_print_dle_banner
 .text.do_dle_calib
                0x0020396c       0xbc /alps/mprelease/MPload/ALPS.JB9.MP.V1.4_WINGTECH92_WET_JB9/source/alps.test/mediatek/preloader/out/dramc_dle_cal.o
                0x0020396d                do_dle_calib
 .text.ett_print_dqs_gw_before_each_round_of_loop_zero
                0x00203a28       0x44 /alps/mprelease/MPload/ALPS.JB9.MP.V1.4_WINGTECH92_WET_JB9/source/alps.test/mediatek/preloader/out/dramc_dqs_gw.o
                0x00203a29                ett_print_dqs_gw_before_each_round_of_loop_zero
 .text.ett_print_dqs_gw_after_each_round_of_loop_zero
                0x00203a6c        0x2 /alps/mprelease/MPload/ALPS.JB9.MP.V1.4_WINGTECH92_WET_JB9/source/alps.test/mediatek/preloader/out/dramc_dqs_gw.o
                0x00203a6d                ett_print_dqs_gw_after_each_round_of_loop_zero
 .text.ett_calc_dqs_gw_opt_value
                0x00203a6e        0x2 /alps/mprelease/MPload/ALPS.JB9.MP.V1.4_WINGTECH92_WET_JB9/source/alps.test/mediatek/preloader/out/dramc_dqs_gw.o
                0x00203a6f                ett_calc_dqs_gw_opt_value
 .text.dqsi_gw_dly_fine_factor_handler
                0x00203a70       0x80 /alps/mprelease/MPload/ALPS.JB9.MP.V1.4_WINGTECH92_WET_JB9/source/alps.test/mediatek/preloader/out/dramc_dqs_gw.o
                0x00203a71                dqsi_gw_dly_fine_factor_handler
 .text.dqsi_gw_dly_coarse_factor_handler
                0x00203af0       0xa4 /alps/mprelease/MPload/ALPS.JB9.MP.V1.4_WINGTECH92_WET_JB9/source/alps.test/mediatek/preloader/out/dramc_dqs_gw.o
                0x00203af1                dqsi_gw_dly_coarse_factor_handler
 .text.dqs_print
                0x00203b94       0x24 /alps/mprelease/MPload/ALPS.JB9.MP.V1.4_WINGTECH92_WET_JB9/source/alps.test/mediatek/preloader/out/dramc_dqs_gw.o
                0x00203b95                dqs_print
 .text.ett_print_dqs_gw_fine_after_finish_loop_zero
                0x00203bb8       0x10 /alps/mprelease/MPload/ALPS.JB9.MP.V1.4_WINGTECH92_WET_JB9/source/alps.test/mediatek/preloader/out/dramc_dqs_gw.o
                0x00203bb9                ett_print_dqs_gw_fine_after_finish_loop_zero
 .text.ett_print_dqs_gw_before_start_loop_zero
                0x00203bc8       0x24 /alps/mprelease/MPload/ALPS.JB9.MP.V1.4_WINGTECH92_WET_JB9/source/alps.test/mediatek/preloader/out/dramc_dqs_gw.o
                0x00203bc9                ett_print_dqs_gw_before_start_loop_zero
 .text.ett_print_dqs_gw_banner
                0x00203bec       0x60 /alps/mprelease/MPload/ALPS.JB9.MP.V1.4_WINGTECH92_WET_JB9/source/alps.test/mediatek/preloader/out/dramc_dqs_gw.o
                0x00203bed                ett_print_dqs_gw_banner
 .text.ett_print_dqs_gw_result_1
                0x00203c4c       0xac /alps/mprelease/MPload/ALPS.JB9.MP.V1.4_WINGTECH92_WET_JB9/source/alps.test/mediatek/preloader/out/dramc_dqs_gw.o
 .text.ett_recursive_factor_tuning
                0x00203cf8       0x94 /alps/mprelease/MPload/ALPS.JB9.MP.V1.4_WINGTECH92_WET_JB9/source/alps.test/mediatek/preloader/out/dramc_dqs_gw.o
                0x00203cf9                ett_recursive_factor_tuning
 .text.dqsi_gw_dly_coarse_factor_handler_rank1
                0x00203d8c       0x5c /alps/mprelease/MPload/ALPS.JB9.MP.V1.4_WINGTECH92_WET_JB9/source/alps.test/mediatek/preloader/out/dramc_dqs_gw.o
                0x00203d8d                dqsi_gw_dly_coarse_factor_handler_rank1
 .text.dqsi_gw_dly_fine_factor_handler_rank1
                0x00203de8       0x80 /alps/mprelease/MPload/ALPS.JB9.MP.V1.4_WINGTECH92_WET_JB9/source/alps.test/mediatek/preloader/out/dramc_dqs_gw.o
                0x00203de9                dqsi_gw_dly_fine_factor_handler_rank1
 .text.Sequence_Read
                0x00203e68      0x190 /alps/mprelease/MPload/ALPS.JB9.MP.V1.4_WINGTECH92_WET_JB9/source/alps.test/mediatek/preloader/out/dramc_dqs_gw.o
                0x00203e69                Sequence_Read
 .text.Do_Read_Test_DDR3
                0x00203ff8       0x7c /alps/mprelease/MPload/ALPS.JB9.MP.V1.4_WINGTECH92_WET_JB9/source/alps.test/mediatek/preloader/out/dramc_dqs_gw.o
                0x00203ff9                Do_Read_Test_DDR3
 .text.Do_Read_Test_DDR2
                0x00204074       0x64 /alps/mprelease/MPload/ALPS.JB9.MP.V1.4_WINGTECH92_WET_JB9/source/alps.test/mediatek/preloader/out/dramc_dqs_gw.o
                0x00204075                Do_Read_Test_DDR2
 .text.cpu_read_test
                0x002040d8      0x19c /alps/mprelease/MPload/ALPS.JB9.MP.V1.4_WINGTECH92_WET_JB9/source/alps.test/mediatek/preloader/out/dramc_dqs_gw.o
                0x002040d9                cpu_read_test
 .text.do_dqs_gw_calib_1
                0x00204274      0x22c /alps/mprelease/MPload/ALPS.JB9.MP.V1.4_WINGTECH92_WET_JB9/source/alps.test/mediatek/preloader/out/dramc_dqs_gw.o
                0x00204275                do_dqs_gw_calib_1
 .text.init_lpddr2
                0x002044a0      0x768 /alps/mprelease/MPload/ALPS.JB9.MP.V1.4_WINGTECH92_WET_JB9/source/alps.test/mediatek/preloader/out/emi.o
 .text.init_lpddr3
                0x00204c08      0x760 /alps/mprelease/MPload/ALPS.JB9.MP.V1.4_WINGTECH92_WET_JB9/source/alps.test/mediatek/preloader/out/emi.o
 .text.mt_get_dram_type_for_dis
                0x00205368       0x14 /alps/mprelease/MPload/ALPS.JB9.MP.V1.4_WINGTECH92_WET_JB9/source/alps.test/mediatek/preloader/out/emi.o
 .text.DRAM_MRR
                0x0020537c      0x208 /alps/mprelease/MPload/ALPS.JB9.MP.V1.4_WINGTECH92_WET_JB9/source/alps.test/mediatek/preloader/out/emi.o
                0x0020537d                DRAM_MRR
 .text.mt_get_mdl_number
                0x00205584      0x334 /alps/mprelease/MPload/ALPS.JB9.MP.V1.4_WINGTECH92_WET_JB9/source/alps.test/mediatek/preloader/out/emi.o
 .text.mt_get_dram_type
                0x002058b8       0x50 /alps/mprelease/MPload/ALPS.JB9.MP.V1.4_WINGTECH92_WET_JB9/source/alps.test/mediatek/preloader/out/emi.o
                0x002058b9                mt_get_dram_type
 .text.get_dram_rank_nr
                0x00205908       0x44 /alps/mprelease/MPload/ALPS.JB9.MP.V1.4_WINGTECH92_WET_JB9/source/alps.test/mediatek/preloader/out/emi.o
                0x00205909                get_dram_rank_nr
 .text.get_dram_rank_size
                0x0020594c       0x48 /alps/mprelease/MPload/ALPS.JB9.MP.V1.4_WINGTECH92_WET_JB9/source/alps.test/mediatek/preloader/out/emi.o
                0x0020594d                get_dram_rank_size
 .text.DFS_ability_detection
                0x00205994       0x7c /alps/mprelease/MPload/ALPS.JB9.MP.V1.4_WINGTECH92_WET_JB9/source/alps.test/mediatek/preloader/out/emi.o
                0x00205995                DFS_ability_detection
 .text.DRAM_Vcore_adjust
                0x00205a10       0x8c /alps/mprelease/MPload/ALPS.JB9.MP.V1.4_WINGTECH92_WET_JB9/source/alps.test/mediatek/preloader/out/emi.o
                0x00205a11                DRAM_Vcore_adjust
 .text.DRAM_Vmem_adjust
                0x00205a9c       0x9e /alps/mprelease/MPload/ALPS.JB9.MP.V1.4_WINGTECH92_WET_JB9/source/alps.test/mediatek/preloader/out/emi.o
                0x00205a9d                DRAM_Vmem_adjust
 .text.check_ddr_reserve_status
                0x00205b3a        0x2 /alps/mprelease/MPload/ALPS.JB9.MP.V1.4_WINGTECH92_WET_JB9/source/alps.test/mediatek/preloader/out/emi.o
                0x00205b3b                check_ddr_reserve_status
 .text.ett_rextdn_sw_calibration
                0x00205b3c      0x1d8 /alps/mprelease/MPload/ALPS.JB9.MP.V1.4_WINGTECH92_WET_JB9/source/alps.test/mediatek/preloader/out/emi.o
                0x00205b3d                ett_rextdn_sw_calibration
 .text.mt_set_emi
                0x00205d14      0xc14 /alps/mprelease/MPload/ALPS.JB9.MP.V1.4_WINGTECH92_WET_JB9/source/alps.test/mediatek/preloader/out/emi.o
                0x00205d15                mt_set_emi
 .text.mt_set_gpio_dir_chip
                0x00206928       0x50 /alps/mprelease/MPload/ALPS.JB9.MP.V1.4_WINGTECH92_WET_JB9/source/alps.test/mediatek/preloader/out/gpio.o
                0x00206929                mt_set_gpio_dir_chip
 .text.mt_set_gpio_pull_enable_chip
                0x00206978      0x21c /alps/mprelease/MPload/ALPS.JB9.MP.V1.4_WINGTECH92_WET_JB9/source/alps.test/mediatek/preloader/out/gpio.o
                0x00206979                mt_set_gpio_pull_enable_chip
 .text.mt_set_gpio_pull_select_chip
                0x00206b94      0x230 /alps/mprelease/MPload/ALPS.JB9.MP.V1.4_WINGTECH92_WET_JB9/source/alps.test/mediatek/preloader/out/gpio.o
                0x00206b95                mt_set_gpio_pull_select_chip
 .text.mt_set_gpio_mode_chip
                0x00206dc4       0x5c /alps/mprelease/MPload/ALPS.JB9.MP.V1.4_WINGTECH92_WET_JB9/source/alps.test/mediatek/preloader/out/gpio.o
                0x00206dc5                mt_set_gpio_mode_chip
 .text.mt_gpio_pin_decrypt
                0x00206e20        0xa /alps/mprelease/MPload/ALPS.JB9.MP.V1.4_WINGTECH92_WET_JB9/source/alps.test/mediatek/preloader/out/gpio.o
                0x00206e21                mt_gpio_pin_decrypt
 .text.mt_set_gpio_dir
                0x00206e2a       0x1c /alps/mprelease/MPload/ALPS.JB9.MP.V1.4_WINGTECH92_WET_JB9/source/alps.test/mediatek/preloader/out/gpio.o
                0x00206e2b                mt_set_gpio_dir
 .text.mt_set_gpio_pull_enable
                0x00206e46       0x1c /alps/mprelease/MPload/ALPS.JB9.MP.V1.4_WINGTECH92_WET_JB9/source/alps.test/mediatek/preloader/out/gpio.o
                0x00206e47                mt_set_gpio_pull_enable
 .text.mt_set_gpio_pull_select
                0x00206e62       0x1c /alps/mprelease/MPload/ALPS.JB9.MP.V1.4_WINGTECH92_WET_JB9/source/alps.test/mediatek/preloader/out/gpio.o
                0x00206e63                mt_set_gpio_pull_select
 .text.mt_set_gpio_mode
                0x00206e7e       0x1c /alps/mprelease/MPload/ALPS.JB9.MP.V1.4_WINGTECH92_WET_JB9/source/alps.test/mediatek/preloader/out/gpio.o
                0x00206e7f                mt_set_gpio_mode
 .text.mt_gpio_init
                0x00206e9a        0x2 /alps/mprelease/MPload/ALPS.JB9.MP.V1.4_WINGTECH92_WET_JB9/source/alps.test/mediatek/preloader/out/gpio.o
                0x00206e9b                mt_gpio_init
 .text.uart_recv
                0x00206e9c        0x4 /alps/mprelease/MPload/ALPS.JB9.MP.V1.4_WINGTECH92_WET_JB9/source/alps.test/mediatek/preloader/out/handshake_uart.o
 .text.uart_send
                0x00206ea0       0x1a /alps/mprelease/MPload/ALPS.JB9.MP.V1.4_WINGTECH92_WET_JB9/source/alps.test/mediatek/preloader/out/handshake_uart.o
 .text.uart_handshake_init
                0x00206ebc       0x58 /alps/mprelease/MPload/ALPS.JB9.MP.V1.4_WINGTECH92_WET_JB9/source/alps.test/mediatek/preloader/out/handshake_uart.o
                0x00206ebd                uart_handshake_init
 .text.uart_handshake
                0x00206f14      0x17c /alps/mprelease/MPload/ALPS.JB9.MP.V1.4_WINGTECH92_WET_JB9/source/alps.test/mediatek/preloader/out/handshake_uart.o
                0x00206f15                uart_handshake
 .text.usb_send
                0x00207090       0x16 /alps/mprelease/MPload/ALPS.JB9.MP.V1.4_WINGTECH92_WET_JB9/source/alps.test/mediatek/preloader/out/handshake_usb.o
 .text.usb_recv
                0x002070a8       0x6c /alps/mprelease/MPload/ALPS.JB9.MP.V1.4_WINGTECH92_WET_JB9/source/alps.test/mediatek/preloader/out/handshake_usb.o
 .text.usb_handshake
                0x00207114      0x2f0 /alps/mprelease/MPload/ALPS.JB9.MP.V1.4_WINGTECH92_WET_JB9/source/alps.test/mediatek/preloader/out/handshake_usb.o
                0x00207115                usb_handshake
 .text.i2c_set_speed
                0x00207404      0x214 /alps/mprelease/MPload/ALPS.JB9.MP.V1.4_WINGTECH92_WET_JB9/source/alps.test/mediatek/preloader/out/i2c.o
                0x00207405                i2c_set_speed
 .text._i2c_dump_info
                0x00207618       0xc8 /alps/mprelease/MPload/ALPS.JB9.MP.V1.4_WINGTECH92_WET_JB9/source/alps.test/mediatek/preloader/out/i2c.o
                0x00207619                _i2c_dump_info
 .text._i2c_write_reg
                0x002076e0      0x1ec /alps/mprelease/MPload/ALPS.JB9.MP.V1.4_WINGTECH92_WET_JB9/source/alps.test/mediatek/preloader/out/i2c.o
                0x002076e1                _i2c_write_reg
 .text._i2c_get_transfer_len
                0x002078cc      0x180 /alps/mprelease/MPload/ALPS.JB9.MP.V1.4_WINGTECH92_WET_JB9/source/alps.test/mediatek/preloader/out/i2c.o
                0x002078cd                _i2c_get_transfer_len
 .text._i2c_transfer_interface
                0x00207a4c      0x258 /alps/mprelease/MPload/ALPS.JB9.MP.V1.4_WINGTECH92_WET_JB9/source/alps.test/mediatek/preloader/out/i2c.o
                0x00207a4d                _i2c_transfer_interface
 .text._i2c_check_para
                0x00207ca4       0x34 /alps/mprelease/MPload/ALPS.JB9.MP.V1.4_WINGTECH92_WET_JB9/source/alps.test/mediatek/preloader/out/i2c.o
                0x00207ca5                _i2c_check_para
 .text._config_mt_i2c
                0x00207cd8       0x9c /alps/mprelease/MPload/ALPS.JB9.MP.V1.4_WINGTECH92_WET_JB9/source/alps.test/mediatek/preloader/out/i2c.o
                0x00207cd9                _config_mt_i2c
 .text.i2c_write
                0x00207d74       0x84 /alps/mprelease/MPload/ALPS.JB9.MP.V1.4_WINGTECH92_WET_JB9/source/alps.test/mediatek/preloader/out/i2c.o
                0x00207d75                i2c_write
 .text.i2c_write_read
                0x00207df8       0x74 /alps/mprelease/MPload/ALPS.JB9.MP.V1.4_WINGTECH92_WET_JB9/source/alps.test/mediatek/preloader/out/i2c.o
                0x00207df9                i2c_write_read
 .text.mtk_kpd_gpios_get
                0x00207e6c       0x20 /alps/mprelease/MPload/ALPS.JB9.MP.V1.4_WINGTECH92_WET_JB9/source/alps.test/mediatek/preloader/out/keypad.o
                0x00207e6d                mtk_kpd_gpios_get
 .text.mtk_kpd_gpio_set
                0x00207e8c       0x80 /alps/mprelease/MPload/ALPS.JB9.MP.V1.4_WINGTECH92_WET_JB9/source/alps.test/mediatek/preloader/out/keypad.o
                0x00207e8d                mtk_kpd_gpio_set
 .text.set_kpd_pmic_mode
                0x00207f0c       0x78 /alps/mprelease/MPload/ALPS.JB9.MP.V1.4_WINGTECH92_WET_JB9/source/alps.test/mediatek/preloader/out/keypad.o
                0x00207f0d                set_kpd_pmic_mode
 .text.enable_PMIC_kpd_clock
                0x00207f84        0x2 /alps/mprelease/MPload/ALPS.JB9.MP.V1.4_WINGTECH92_WET_JB9/source/alps.test/mediatek/preloader/out/keypad.o
                0x00207f85                enable_PMIC_kpd_clock
 .text.mtk_detect_key
                0x00207f88       0x64 /alps/mprelease/MPload/ALPS.JB9.MP.V1.4_WINGTECH92_WET_JB9/source/alps.test/mediatek/preloader/out/keypad.o
                0x00207f89                mtk_detect_key
 .text.mtk_detect_dl_keys
                0x00207fec       0x2c /alps/mprelease/MPload/ALPS.JB9.MP.V1.4_WINGTECH92_WET_JB9/source/alps.test/mediatek/preloader/out/keypad.o
                0x00207fed                mtk_detect_dl_keys
 .text.wait_for_discon.constprop.0
                0x00208018       0x64 /alps/mprelease/MPload/ALPS.JB9.MP.V1.4_WINGTECH92_WET_JB9/source/alps.test/mediatek/preloader/out/main.o
 .text.bldr_cmd_handler
                0x0020807c      0x394 /alps/mprelease/MPload/ALPS.JB9.MP.V1.4_WINGTECH92_WET_JB9/source/alps.test/mediatek/preloader/out/main.o
 .text.bldr_load_part
                0x00208410       0x3c /alps/mprelease/MPload/ALPS.JB9.MP.V1.4_WINGTECH92_WET_JB9/source/alps.test/mediatek/preloader/out/main.o
                0x00208411                bldr_load_part
 .text.bldr_jump
                0x0020844c       0x60 /alps/mprelease/MPload/ALPS.JB9.MP.V1.4_WINGTECH92_WET_JB9/source/alps.test/mediatek/preloader/out/main.o
                0x0020844d                bldr_jump
 .text.startup.main
                0x002084ac      0x1e4 /alps/mprelease/MPload/ALPS.JB9.MP.V1.4_WINGTECH92_WET_JB9/source/alps.test/mediatek/preloader/out/main.o
                0x002084ad                main
 .text.complex_mem_test
                0x00208690      0x430 /alps/mprelease/MPload/ALPS.JB9.MP.V1.4_WINGTECH92_WET_JB9/source/alps.test/mediatek/preloader/out/memory.o
                0x00208691                complex_mem_test
 .text.mt_mem_init
                0x00208ac0       0xb4 /alps/mprelease/MPload/ALPS.JB9.MP.V1.4_WINGTECH92_WET_JB9/source/alps.test/mediatek/preloader/out/memory.o
                0x00208ac1                mt_mem_init
 .text.mmc_switch_part
                0x00208b74       0x6e /alps/mprelease/MPload/ALPS.JB9.MP.V1.4_WINGTECH92_WET_JB9/source/alps.test/mediatek/preloader/out/mmc_common_inter.o
 .text.mmc_bwrite
                0x00208be2       0x24 /alps/mprelease/MPload/ALPS.JB9.MP.V1.4_WINGTECH92_WET_JB9/source/alps.test/mediatek/preloader/out/mmc_common_inter.o
 .text.mmc_bread
                0x00208c06       0x24 /alps/mprelease/MPload/ALPS.JB9.MP.V1.4_WINGTECH92_WET_JB9/source/alps.test/mediatek/preloader/out/mmc_common_inter.o
 .text.mmc_init_device
                0x00208c2c      0x224 /alps/mprelease/MPload/ALPS.JB9.MP.V1.4_WINGTECH92_WET_JB9/source/alps.test/mediatek/preloader/out/mmc_common_inter.o
                0x00208c2d                mmc_init_device
 .text.mmc_get_device_id
                0x00208e50       0xcc /alps/mprelease/MPload/ALPS.JB9.MP.V1.4_WINGTECH92_WET_JB9/source/alps.test/mediatek/preloader/out/mmc_common_inter.o
                0x00208e51                mmc_get_device_id
 .text.unstuff_bits
                0x00208f1c       0x36 /alps/mprelease/MPload/ALPS.JB9.MP.V1.4_WINGTECH92_WET_JB9/source/alps.test/mediatek/preloader/out/mmc_core.o
 .text.mmc_cmd  0x00208f52       0x1a /alps/mprelease/MPload/ALPS.JB9.MP.V1.4_WINGTECH92_WET_JB9/source/alps.test/mediatek/preloader/out/mmc_core.o
 .text.mmc_send_if_cond
                0x00208f6c       0x40 /alps/mprelease/MPload/ALPS.JB9.MP.V1.4_WINGTECH92_WET_JB9/source/alps.test/mediatek/preloader/out/mmc_core.o
 .text.mmc_app_cmd
                0x00208fac       0x3c /alps/mprelease/MPload/ALPS.JB9.MP.V1.4_WINGTECH92_WET_JB9/source/alps.test/mediatek/preloader/out/mmc_core.o
 .text.mmc_send_app_op_cond
                0x00208fe8       0x52 /alps/mprelease/MPload/ALPS.JB9.MP.V1.4_WINGTECH92_WET_JB9/source/alps.test/mediatek/preloader/out/mmc_core.o
 .text.mmc_send_op_cond
                0x0020903a       0x54 /alps/mprelease/MPload/ALPS.JB9.MP.V1.4_WINGTECH92_WET_JB9/source/alps.test/mediatek/preloader/out/mmc_core.o
 .text.mmc_sd_switch.isra.0.constprop.3
                0x00209090       0xb8 /alps/mprelease/MPload/ALPS.JB9.MP.V1.4_WINGTECH92_WET_JB9/source/alps.test/mediatek/preloader/out/mmc_core.o
 .text.mmc_get_host
                0x00209148       0x10 /alps/mprelease/MPload/ALPS.JB9.MP.V1.4_WINGTECH92_WET_JB9/source/alps.test/mediatek/preloader/out/mmc_core.o
                0x00209149                mmc_get_host
 .text.mmc_get_card
                0x00209158       0x14 /alps/mprelease/MPload/ALPS.JB9.MP.V1.4_WINGTECH92_WET_JB9/source/alps.test/mediatek/preloader/out/mmc_core.o
                0x00209159                mmc_get_card
 .text.mmc_go_idle
                0x0020916c       0x1e /alps/mprelease/MPload/ALPS.JB9.MP.V1.4_WINGTECH92_WET_JB9/source/alps.test/mediatek/preloader/out/mmc_core.o
                0x0020916d                mmc_go_idle
 .text.mmc_send_status
                0x0020918a       0x2c /alps/mprelease/MPload/ALPS.JB9.MP.V1.4_WINGTECH92_WET_JB9/source/alps.test/mediatek/preloader/out/mmc_core.o
                0x0020918b                mmc_send_status
 .text.mmc_select_card
                0x002091b6       0x24 /alps/mprelease/MPload/ALPS.JB9.MP.V1.4_WINGTECH92_WET_JB9/source/alps.test/mediatek/preloader/out/mmc_core.o
                0x002091b7                mmc_select_card
 .text.mmc_switch
                0x002091dc       0x84 /alps/mprelease/MPload/ALPS.JB9.MP.V1.4_WINGTECH92_WET_JB9/source/alps.test/mediatek/preloader/out/mmc_core.o
                0x002091dd                mmc_switch
 .text.mmc_switch_hs
                0x00209260       0x50 /alps/mprelease/MPload/ALPS.JB9.MP.V1.4_WINGTECH92_WET_JB9/source/alps.test/mediatek/preloader/out/mmc_core.o
                0x00209261                mmc_switch_hs
 .text.mmc_read_ext_csd
                0x002092b0      0x148 /alps/mprelease/MPload/ALPS.JB9.MP.V1.4_WINGTECH92_WET_JB9/source/alps.test/mediatek/preloader/out/mmc_core.o
                0x002092b1                mmc_read_ext_csd
 .text.mmc_set_clock
                0x002093f8       0x1c /alps/mprelease/MPload/ALPS.JB9.MP.V1.4_WINGTECH92_WET_JB9/source/alps.test/mediatek/preloader/out/mmc_core.o
                0x002093f9                mmc_set_clock
 .text.mmc_dev_bwrite
                0x00209414       0xf0 /alps/mprelease/MPload/ALPS.JB9.MP.V1.4_WINGTECH92_WET_JB9/source/alps.test/mediatek/preloader/out/mmc_core.o
 .text.mmc_set_card_detect
                0x00209504       0x26 /alps/mprelease/MPload/ALPS.JB9.MP.V1.4_WINGTECH92_WET_JB9/source/alps.test/mediatek/preloader/out/mmc_core.o
                0x00209505                mmc_set_card_detect
 .text.mmc_set_blk_length
                0x0020952a       0x32 /alps/mprelease/MPload/ALPS.JB9.MP.V1.4_WINGTECH92_WET_JB9/source/alps.test/mediatek/preloader/out/mmc_core.o
                0x0020952b                mmc_set_blk_length
 .text.mmc_set_bus_width
                0x0020955c      0x134 /alps/mprelease/MPload/ALPS.JB9.MP.V1.4_WINGTECH92_WET_JB9/source/alps.test/mediatek/preloader/out/mmc_core.o
                0x0020955d                mmc_set_bus_width
 .text.mmc_dev_bread
                0x00209690       0xc0 /alps/mprelease/MPload/ALPS.JB9.MP.V1.4_WINGTECH92_WET_JB9/source/alps.test/mediatek/preloader/out/mmc_core.o
                0x00209691                mmc_dev_bread
 .text.mmc_block_read
                0x00209750       0x9c /alps/mprelease/MPload/ALPS.JB9.MP.V1.4_WINGTECH92_WET_JB9/source/alps.test/mediatek/preloader/out/mmc_core.o
                0x00209751                mmc_block_read
 .text.mmc_block_write
                0x002097ec       0x9c /alps/mprelease/MPload/ALPS.JB9.MP.V1.4_WINGTECH92_WET_JB9/source/alps.test/mediatek/preloader/out/mmc_core.o
                0x002097ed                mmc_block_write
 .text.mmc_stuff_buff
                0x00209888       0x40 /alps/mprelease/MPload/ALPS.JB9.MP.V1.4_WINGTECH92_WET_JB9/source/alps.test/mediatek/preloader/out/mmc_core.o
                0x00209889                mmc_stuff_buff
 .text.mmc_get_sandisk_fwid
                0x002098c8      0x10c /alps/mprelease/MPload/ALPS.JB9.MP.V1.4_WINGTECH92_WET_JB9/source/alps.test/mediatek/preloader/out/mmc_core.o
                0x002098c9                mmc_get_sandisk_fwid
 .text.mmc_init_mem_card
                0x002099d4      0x66c /alps/mprelease/MPload/ALPS.JB9.MP.V1.4_WINGTECH92_WET_JB9/source/alps.test/mediatek/preloader/out/mmc_core.o
                0x002099d5                mmc_init_mem_card
 .text.mmc_init_card
                0x0020a040       0x90 /alps/mprelease/MPload/ALPS.JB9.MP.V1.4_WINGTECH92_WET_JB9/source/alps.test/mediatek/preloader/out/mmc_core.o
                0x0020a041                mmc_init_card
 .text.mmc_init_host
                0x0020a0d0       0x1a /alps/mprelease/MPload/ALPS.JB9.MP.V1.4_WINGTECH92_WET_JB9/source/alps.test/mediatek/preloader/out/mmc_core.o
                0x0020a0d1                mmc_init_host
 .text.mmc_init
                0x0020a0ec       0x54 /alps/mprelease/MPload/ALPS.JB9.MP.V1.4_WINGTECH92_WET_JB9/source/alps.test/mediatek/preloader/out/mmc_core.o
                0x0020a0ed                mmc_init
 .text.mrdump_check_ok
                0x0020a140       0x54 /alps/mprelease/MPload/ALPS.JB9.MP.V1.4_WINGTECH92_WET_JB9/source/alps.test/mediatek/preloader/out/mrdump.o
                0x0020a141                mrdump_check_ok
 .text.msdc_clr_fifo
                0x0020a194       0x2e /alps/mprelease/MPload/ALPS.JB9.MP.V1.4_WINGTECH92_WET_JB9/source/alps.test/mediatek/preloader/out/msdc.o
                0x0020a195                msdc_clr_fifo
 .text.msdc_pin_pud.isra.2
                0x0020a1c4      0x5fc /alps/mprelease/MPload/ALPS.JB9.MP.V1.4_WINGTECH92_WET_JB9/source/alps.test/mediatek/preloader/out/msdc.o
 .text.msdc_set_timeout
                0x0020a7c0       0x44 /alps/mprelease/MPload/ALPS.JB9.MP.V1.4_WINGTECH92_WET_JB9/source/alps.test/mediatek/preloader/out/msdc.o
                0x0020a7c1                msdc_set_timeout
 .text.msdc_set_blklen
                0x0020a804        0xe /alps/mprelease/MPload/ALPS.JB9.MP.V1.4_WINGTECH92_WET_JB9/source/alps.test/mediatek/preloader/out/msdc.o
                0x0020a805                msdc_set_blklen
 .text.msdc_set_blknum
                0x0020a812        0x6 /alps/mprelease/MPload/ALPS.JB9.MP.V1.4_WINGTECH92_WET_JB9/source/alps.test/mediatek/preloader/out/msdc.o
                0x0020a813                msdc_set_blknum
 .text.msdc_reset
                0x0020a818       0x2a /alps/mprelease/MPload/ALPS.JB9.MP.V1.4_WINGTECH92_WET_JB9/source/alps.test/mediatek/preloader/out/msdc.o
                0x0020a819                msdc_reset
 .text.msdc_abort
                0x0020a842       0x20 /alps/mprelease/MPload/ALPS.JB9.MP.V1.4_WINGTECH92_WET_JB9/source/alps.test/mediatek/preloader/out/msdc.o
                0x0020a843                msdc_abort
 .text.msdc_intr_wait
                0x0020a862       0x12 /alps/mprelease/MPload/ALPS.JB9.MP.V1.4_WINGTECH92_WET_JB9/source/alps.test/mediatek/preloader/out/msdc.o
                0x0020a863                msdc_intr_wait
 .text.msdc_intr_unmask
                0x0020a874        0xa /alps/mprelease/MPload/ALPS.JB9.MP.V1.4_WINGTECH92_WET_JB9/source/alps.test/mediatek/preloader/out/msdc.o
                0x0020a875                msdc_intr_unmask
 .text.msdc_send_cmd
                0x0020a880      0x1e0 /alps/mprelease/MPload/ALPS.JB9.MP.V1.4_WINGTECH92_WET_JB9/source/alps.test/mediatek/preloader/out/msdc.o
                0x0020a881                msdc_send_cmd
 .text.msdc_wait_rsp
                0x0020aa60       0xec /alps/mprelease/MPload/ALPS.JB9.MP.V1.4_WINGTECH92_WET_JB9/source/alps.test/mediatek/preloader/out/msdc.o
                0x0020aa61                msdc_wait_rsp
 .text.msdc_pio_read_word
                0x0020ab4c       0xb8 /alps/mprelease/MPload/ALPS.JB9.MP.V1.4_WINGTECH92_WET_JB9/source/alps.test/mediatek/preloader/out/msdc.o
                0x0020ab4d                msdc_pio_read_word
 .text.msdc_pio_read
                0x0020ac04       0x16 /alps/mprelease/MPload/ALPS.JB9.MP.V1.4_WINGTECH92_WET_JB9/source/alps.test/mediatek/preloader/out/msdc.o
                0x0020ac05                msdc_pio_read
 .text.msdc_pio_write_word
                0x0020ac1c       0x94 /alps/mprelease/MPload/ALPS.JB9.MP.V1.4_WINGTECH92_WET_JB9/source/alps.test/mediatek/preloader/out/msdc.o
                0x0020ac1d                msdc_pio_write_word
 .text.msdc_pio_write
                0x0020acb0       0x16 /alps/mprelease/MPload/ALPS.JB9.MP.V1.4_WINGTECH92_WET_JB9/source/alps.test/mediatek/preloader/out/msdc.o
                0x0020acb1                msdc_pio_write
 .text.msdc_config_clksrc
                0x0020acc8       0x10 /alps/mprelease/MPload/ALPS.JB9.MP.V1.4_WINGTECH92_WET_JB9/source/alps.test/mediatek/preloader/out/msdc.o
                0x0020acc9                msdc_config_clksrc
 .text.msdc_config_clock
                0x0020acd8       0xec /alps/mprelease/MPload/ALPS.JB9.MP.V1.4_WINGTECH92_WET_JB9/source/alps.test/mediatek/preloader/out/msdc.o
                0x0020acd9                msdc_config_clock
 .text.msdc_config_bus
                0x0020adc4       0x34 /alps/mprelease/MPload/ALPS.JB9.MP.V1.4_WINGTECH92_WET_JB9/source/alps.test/mediatek/preloader/out/msdc.o
                0x0020adc5                msdc_config_bus
 .text.msdc_config_pin
                0x0020adf8       0x20 /alps/mprelease/MPload/ALPS.JB9.MP.V1.4_WINGTECH92_WET_JB9/source/alps.test/mediatek/preloader/out/msdc.o
                0x0020adf9                msdc_config_pin
 .text.msdc_clock
                0x0020ae18        0x2 /alps/mprelease/MPload/ALPS.JB9.MP.V1.4_WINGTECH92_WET_JB9/source/alps.test/mediatek/preloader/out/msdc.o
                0x0020ae19                msdc_clock
 .text.msdc_host_power
                0x0020ae1a       0x28 /alps/mprelease/MPload/ALPS.JB9.MP.V1.4_WINGTECH92_WET_JB9/source/alps.test/mediatek/preloader/out/msdc.o
                0x0020ae1b                msdc_host_power
 .text.msdc_card_power
                0x0020ae42        0x2 /alps/mprelease/MPload/ALPS.JB9.MP.V1.4_WINGTECH92_WET_JB9/source/alps.test/mediatek/preloader/out/msdc.o
                0x0020ae43                msdc_card_power
 .text.msdc_power
                0x0020ae44       0x30 /alps/mprelease/MPload/ALPS.JB9.MP.V1.4_WINGTECH92_WET_JB9/source/alps.test/mediatek/preloader/out/msdc.o
                0x0020ae45                msdc_power
 .text.msdc_reset_tune_counter
                0x0020ae74        0x6 /alps/mprelease/MPload/ALPS.JB9.MP.V1.4_WINGTECH92_WET_JB9/source/alps.test/mediatek/preloader/out/msdc.o
                0x0020ae75                msdc_reset_tune_counter
 .text.msdc_tune_cmdrsp
                0x0020ae7c      0x250 /alps/mprelease/MPload/ALPS.JB9.MP.V1.4_WINGTECH92_WET_JB9/source/alps.test/mediatek/preloader/out/msdc.o
                0x0020ae7d                msdc_tune_cmdrsp
 .text.msdc_cmd
                0x0020b0cc       0x4c /alps/mprelease/MPload/ALPS.JB9.MP.V1.4_WINGTECH92_WET_JB9/source/alps.test/mediatek/preloader/out/msdc.o
                0x0020b0cd                msdc_cmd
 .text.msdc_abort_handler
                0x0020b118       0xc4 /alps/mprelease/MPload/ALPS.JB9.MP.V1.4_WINGTECH92_WET_JB9/source/alps.test/mediatek/preloader/out/msdc.o
                0x0020b119                msdc_abort_handler
 .text.msdc_pio_bwrite
                0x0020b1dc       0xe8 /alps/mprelease/MPload/ALPS.JB9.MP.V1.4_WINGTECH92_WET_JB9/source/alps.test/mediatek/preloader/out/msdc.o
                0x0020b1dd                msdc_pio_bwrite
 .text.msdc_pio_bread
                0x0020b2c4       0xf0 /alps/mprelease/MPload/ALPS.JB9.MP.V1.4_WINGTECH92_WET_JB9/source/alps.test/mediatek/preloader/out/msdc.o
                0x0020b2c5                msdc_pio_bread
 .text.msdc_pio_send_sandisk_fwid
                0x0020b3b4       0x98 /alps/mprelease/MPload/ALPS.JB9.MP.V1.4_WINGTECH92_WET_JB9/source/alps.test/mediatek/preloader/out/msdc.o
                0x0020b3b5                msdc_pio_send_sandisk_fwid
 .text.msdc_pio_get_sandisk_fwid
                0x0020b44c       0xa4 /alps/mprelease/MPload/ALPS.JB9.MP.V1.4_WINGTECH92_WET_JB9/source/alps.test/mediatek/preloader/out/msdc.o
                0x0020b44d                msdc_pio_get_sandisk_fwid
 .text.msdc_tune_bread
                0x0020b4f0      0x390 /alps/mprelease/MPload/ALPS.JB9.MP.V1.4_WINGTECH92_WET_JB9/source/alps.test/mediatek/preloader/out/msdc.o
                0x0020b4f1                msdc_tune_bread
 .text.msdc_tune_read
                0x0020b880      0x2bc /alps/mprelease/MPload/ALPS.JB9.MP.V1.4_WINGTECH92_WET_JB9/source/alps.test/mediatek/preloader/out/msdc.o
                0x0020b881                msdc_tune_read
 .text.msdc_init
                0x0020bb3c      0x2c0 /alps/mprelease/MPload/ALPS.JB9.MP.V1.4_WINGTECH92_WET_JB9/source/alps.test/mediatek/preloader/out/msdc.o
                0x0020bb3d                msdc_init
 .text.msdc_uffs
                0x0020bdfc       0x32 /alps/mprelease/MPload/ALPS.JB9.MP.V1.4_WINGTECH92_WET_JB9/source/alps.test/mediatek/preloader/out/msdc_utils.o
                0x0020bdfd                msdc_uffs
 .text.msdc_set_field
                0x0020be2e       0x1c /alps/mprelease/MPload/ALPS.JB9.MP.V1.4_WINGTECH92_WET_JB9/source/alps.test/mediatek/preloader/out/msdc_utils.o
                0x0020be2f                msdc_set_field
 .text.msdc_get_field
                0x0020be4a       0x16 /alps/mprelease/MPload/ALPS.JB9.MP.V1.4_WINGTECH92_WET_JB9/source/alps.test/mediatek/preloader/out/msdc_utils.o
                0x0020be4b                msdc_get_field
 .text.pmt_init
                0x0020be60      0x2c8 /alps/mprelease/MPload/ALPS.JB9.MP.V1.4_WINGTECH92_WET_JB9/source/alps.test/mediatek/preloader/out/partition.o
                0x0020be61                pmt_init
 .text.pmt_get_part
                0x0020c128       0x7c /alps/mprelease/MPload/ALPS.JB9.MP.V1.4_WINGTECH92_WET_JB9/source/alps.test/mediatek/preloader/out/partition.o
                0x0020c129                pmt_get_part
 .text.part_init
                0x0020c1a4       0xd4 /alps/mprelease/MPload/ALPS.JB9.MP.V1.4_WINGTECH92_WET_JB9/source/alps.test/mediatek/preloader/out/part.o
                0x0020c1a5                part_init
 .text.part_get
                0x0020c278       0x40 /alps/mprelease/MPload/ALPS.JB9.MP.V1.4_WINGTECH92_WET_JB9/source/alps.test/mediatek/preloader/out/part.o
                0x0020c279                part_get
 .text.part_load
                0x0020c2b8      0x1dc /alps/mprelease/MPload/ALPS.JB9.MP.V1.4_WINGTECH92_WET_JB9/source/alps.test/mediatek/preloader/out/part.o
                0x0020c2b9                part_load
 .text.part_dump
                0x0020c494       0x7c /alps/mprelease/MPload/ALPS.JB9.MP.V1.4_WINGTECH92_WET_JB9/source/alps.test/mediatek/preloader/out/part.o
                0x0020c495                part_dump
 .text.set_to_usb_mode
                0x0020c510       0xdc /alps/mprelease/MPload/ALPS.JB9.MP.V1.4_WINGTECH92_WET_JB9/source/alps.test/mediatek/preloader/out/platform.o
                0x0020c511                set_to_usb_mode
 .text.platform_set_chrg_cur
                0x0020c5ec        0x4 /alps/mprelease/MPload/ALPS.JB9.MP.V1.4_WINGTECH92_WET_JB9/source/alps.test/mediatek/preloader/out/platform.o
                0x0020c5ed                platform_set_chrg_cur
 .text.usb_accessory_in
                0x0020c5f0       0x1e /alps/mprelease/MPload/ALPS.JB9.MP.V1.4_WINGTECH92_WET_JB9/source/alps.test/mediatek/preloader/out/platform.o
                0x0020c5f1                usb_accessory_in
 .text.usb_cable_in
                0x0020c610       0x94 /alps/mprelease/MPload/ALPS.JB9.MP.V1.4_WINGTECH92_WET_JB9/source/alps.test/mediatek/preloader/out/platform.o
                0x0020c611                usb_cable_in
 .text.set_to_uart_mode
                0x0020c6a4      0x15c /alps/mprelease/MPload/ALPS.JB9.MP.V1.4_WINGTECH92_WET_JB9/source/alps.test/mediatek/preloader/out/platform.o
                0x0020c6a5                set_to_uart_mode
 .text.platform_vusb_on
                0x0020c800       0x2c /alps/mprelease/MPload/ALPS.JB9.MP.V1.4_WINGTECH92_WET_JB9/source/alps.test/mediatek/preloader/out/platform.o
                0x0020c801                platform_vusb_on
 .text.platform_set_boot_args
                0x0020c82c      0x21c /alps/mprelease/MPload/ALPS.JB9.MP.V1.4_WINGTECH92_WET_JB9/source/alps.test/mediatek/preloader/out/platform.o
                0x0020c82d                platform_set_boot_args
 .text.platform_set_dl_boot_args
                0x0020ca48       0x7c /alps/mprelease/MPload/ALPS.JB9.MP.V1.4_WINGTECH92_WET_JB9/source/alps.test/mediatek/preloader/out/platform.o
                0x0020ca49                platform_set_dl_boot_args
 .text.platform_wdt_all_kick
                0x0020cac4        0xe /alps/mprelease/MPload/ALPS.JB9.MP.V1.4_WINGTECH92_WET_JB9/source/alps.test/mediatek/preloader/out/platform.o
                0x0020cac5                platform_wdt_all_kick
 .text.platform_wdt_kick
                0x0020cad2        0x4 /alps/mprelease/MPload/ALPS.JB9.MP.V1.4_WINGTECH92_WET_JB9/source/alps.test/mediatek/preloader/out/platform.o
                0x0020cad3                platform_wdt_kick
 .text.platform_safe_mode
                0x0020cad8       0x3c /alps/mprelease/MPload/ALPS.JB9.MP.V1.4_WINGTECH92_WET_JB9/source/alps.test/mediatek/preloader/out/platform.o
                0x0020cad9                platform_safe_mode
 .text.platform_emergency_download
                0x0020cb14       0x38 /alps/mprelease/MPload/ALPS.JB9.MP.V1.4_WINGTECH92_WET_JB9/source/alps.test/mediatek/preloader/out/platform.o
                0x0020cb15                platform_emergency_download
 .text.platform_get_mcp_id
                0x0020cb4c       0x1e /alps/mprelease/MPload/ALPS.JB9.MP.V1.4_WINGTECH92_WET_JB9/source/alps.test/mediatek/preloader/out/platform.o
                0x0020cb4d                platform_get_mcp_id
 .text.platform_chip_ver
                0x0020cb6a        0x6 /alps/mprelease/MPload/ALPS.JB9.MP.V1.4_WINGTECH92_WET_JB9/source/alps.test/mediatek/preloader/out/platform.o
                0x0020cb6b                platform_chip_ver
 .text.platform_com_wait_forever_check
                0x0020cb70        0x4 /alps/mprelease/MPload/ALPS.JB9.MP.V1.4_WINGTECH92_WET_JB9/source/alps.test/mediatek/preloader/out/platform.o
                0x0020cb71                platform_com_wait_forever_check
 .text.platform_pre_init
                0x0020cb74      0x134 /alps/mprelease/MPload/ALPS.JB9.MP.V1.4_WINGTECH92_WET_JB9/source/alps.test/mediatek/preloader/out/platform.o
                0x0020cb75                platform_pre_init
 .text.platform_init
                0x0020cca8      0x1cc /alps/mprelease/MPload/ALPS.JB9.MP.V1.4_WINGTECH92_WET_JB9/source/alps.test/mediatek/preloader/out/platform.o
                0x0020cca9                platform_init
 .text.platform_post_init
                0x0020ce74       0xb8 /alps/mprelease/MPload/ALPS.JB9.MP.V1.4_WINGTECH92_WET_JB9/source/alps.test/mediatek/preloader/out/platform.o
                0x0020ce75                platform_post_init
 .text.platform_error_handler
                0x0020cf2c       0x38 /alps/mprelease/MPload/ALPS.JB9.MP.V1.4_WINGTECH92_WET_JB9/source/alps.test/mediatek/preloader/out/platform.o
                0x0020cf2d                platform_error_handler
 .text.platform_assert
                0x0020cf64       0x20 /alps/mprelease/MPload/ALPS.JB9.MP.V1.4_WINGTECH92_WET_JB9/source/alps.test/mediatek/preloader/out/platform.o
                0x0020cf65                platform_assert
 .text.mt_mempll_init
                0x0020cf84      0x3dc /alps/mprelease/MPload/ALPS.JB9.MP.V1.4_WINGTECH92_WET_JB9/source/alps.test/mediatek/preloader/out/pll.o
                0x0020cf85                mt_mempll_init
 .text.mt_get_cpu_freq
                0x0020d360       0x7c /alps/mprelease/MPload/ALPS.JB9.MP.V1.4_WINGTECH92_WET_JB9/source/alps.test/mediatek/preloader/out/pll.o
                0x0020d361                mt_get_cpu_freq
 .text.mt_get_mem_freq
                0x0020d3dc       0x78 /alps/mprelease/MPload/ALPS.JB9.MP.V1.4_WINGTECH92_WET_JB9/source/alps.test/mediatek/preloader/out/pll.o
                0x0020d3dd                mt_get_mem_freq
 .text.mt_get_bus_freq
                0x0020d454       0x78 /alps/mprelease/MPload/ALPS.JB9.MP.V1.4_WINGTECH92_WET_JB9/source/alps.test/mediatek/preloader/out/pll.o
                0x0020d455                mt_get_bus_freq
 .text.mt_pll_post_init
                0x0020d4cc       0x3c /alps/mprelease/MPload/ALPS.JB9.MP.V1.4_WINGTECH92_WET_JB9/source/alps.test/mediatek/preloader/out/pll.o
                0x0020d4cd                mt_pll_post_init
 .text.spm_mtcmos_ctrl_disp
                0x0020d508       0xcc /alps/mprelease/MPload/ALPS.JB9.MP.V1.4_WINGTECH92_WET_JB9/source/alps.test/mediatek/preloader/out/pll.o
                0x0020d509                spm_mtcmos_ctrl_disp
 .text.mt_pll_init
                0x0020d5d4      0x2ac /alps/mprelease/MPload/ALPS.JB9.MP.V1.4_WINGTECH92_WET_JB9/source/alps.test/mediatek/preloader/out/pll.o
                0x0020d5d5                mt_pll_init
 .text.mt6333_write_byte
                0x0020d880       0x4c /alps/mprelease/MPload/ALPS.JB9.MP.V1.4_WINGTECH92_WET_JB9/source/alps.test/mediatek/preloader/out/pmic_6333.o
                0x0020d881                mt6333_write_byte
 .text.mt6333_read_byte
                0x0020d8cc       0x44 /alps/mprelease/MPload/ALPS.JB9.MP.V1.4_WINGTECH92_WET_JB9/source/alps.test/mediatek/preloader/out/pmic_6333.o
                0x0020d8cd                mt6333_read_byte
 .text.mt6333_read_interface
                0x0020d910       0x24 /alps/mprelease/MPload/ALPS.JB9.MP.V1.4_WINGTECH92_WET_JB9/source/alps.test/mediatek/preloader/out/pmic_6333.o
                0x0020d911                mt6333_read_interface
 .text.mt6333_config_interface
                0x0020d934       0x34 /alps/mprelease/MPload/ALPS.JB9.MP.V1.4_WINGTECH92_WET_JB9/source/alps.test/mediatek/preloader/out/pmic_6333.o
                0x0020d935                mt6333_config_interface
 .text.mt6333_get_reg_value
                0x0020d968       0x18 /alps/mprelease/MPload/ALPS.JB9.MP.V1.4_WINGTECH92_WET_JB9/source/alps.test/mediatek/preloader/out/pmic_6333.o
                0x0020d969                mt6333_get_reg_value
 .text.mt6333_init
                0x0020d980       0x40 /alps/mprelease/MPload/ALPS.JB9.MP.V1.4_WINGTECH92_WET_JB9/source/alps.test/mediatek/preloader/out/pmic_6333.o
                0x0020d981                mt6333_init
 .text.pmic_read_interface
                0x0020d9c0       0x40 /alps/mprelease/MPload/ALPS.JB9.MP.V1.4_WINGTECH92_WET_JB9/source/alps.test/mediatek/preloader/out/pmic.o
                0x0020d9c1                pmic_read_interface
 .text.pmic_config_interface
                0x0020da00       0x58 /alps/mprelease/MPload/ALPS.JB9.MP.V1.4_WINGTECH92_WET_JB9/source/alps.test/mediatek/preloader/out/pmic.o
                0x0020da01                pmic_config_interface
 .text.pmic_lock
                0x0020da58        0x2 /alps/mprelease/MPload/ALPS.JB9.MP.V1.4_WINGTECH92_WET_JB9/source/alps.test/mediatek/preloader/out/pmic.o
                0x0020da59                pmic_lock
 .text.pmic_unlock
                0x0020da5a        0x2 /alps/mprelease/MPload/ALPS.JB9.MP.V1.4_WINGTECH92_WET_JB9/source/alps.test/mediatek/preloader/out/pmic.o
                0x0020da5b                pmic_unlock
 .text.upmu_set_rg_bc11_bb_ctrl
                0x0020da5c       0x1c /alps/mprelease/MPload/ALPS.JB9.MP.V1.4_WINGTECH92_WET_JB9/source/alps.test/mediatek/preloader/out/pmic.o
                0x0020da5d                upmu_set_rg_bc11_bb_ctrl
 .text.upmu_set_rg_bc11_rst
                0x0020da78       0x1c /alps/mprelease/MPload/ALPS.JB9.MP.V1.4_WINGTECH92_WET_JB9/source/alps.test/mediatek/preloader/out/pmic.o
                0x0020da79                upmu_set_rg_bc11_rst
 .text.upmu_set_rg_bc11_vsrc_en
                0x0020da94       0x1c /alps/mprelease/MPload/ALPS.JB9.MP.V1.4_WINGTECH92_WET_JB9/source/alps.test/mediatek/preloader/out/pmic.o
                0x0020da95                upmu_set_rg_bc11_vsrc_en
 .text.upmu_get_rgs_bc11_cmp_out
                0x0020dab0       0x22 /alps/mprelease/MPload/ALPS.JB9.MP.V1.4_WINGTECH92_WET_JB9/source/alps.test/mediatek/preloader/out/pmic.o
                0x0020dab1                upmu_get_rgs_bc11_cmp_out
 .text.upmu_set_rg_bc11_vref_vth
                0x0020dad2       0x1c /alps/mprelease/MPload/ALPS.JB9.MP.V1.4_WINGTECH92_WET_JB9/source/alps.test/mediatek/preloader/out/pmic.o
                0x0020dad3                upmu_set_rg_bc11_vref_vth
 .text.upmu_set_rg_bc11_cmp_en
                0x0020daee       0x1c /alps/mprelease/MPload/ALPS.JB9.MP.V1.4_WINGTECH92_WET_JB9/source/alps.test/mediatek/preloader/out/pmic.o
                0x0020daef                upmu_set_rg_bc11_cmp_en
 .text.upmu_set_rg_bc11_ipd_en
                0x0020db0a       0x1c /alps/mprelease/MPload/ALPS.JB9.MP.V1.4_WINGTECH92_WET_JB9/source/alps.test/mediatek/preloader/out/pmic.o
                0x0020db0b                upmu_set_rg_bc11_ipd_en
 .text.upmu_set_rg_bc11_ipu_en
                0x0020db26       0x1c /alps/mprelease/MPload/ALPS.JB9.MP.V1.4_WINGTECH92_WET_JB9/source/alps.test/mediatek/preloader/out/pmic.o
                0x0020db27                upmu_set_rg_bc11_ipu_en
 .text.upmu_set_rg_bc11_bias_en
                0x0020db42       0x1c /alps/mprelease/MPload/ALPS.JB9.MP.V1.4_WINGTECH92_WET_JB9/source/alps.test/mediatek/preloader/out/pmic.o
                0x0020db43                upmu_set_rg_bc11_bias_en
 .text.hw_bc11_init
                0x0020db5e       0x40 /alps/mprelease/MPload/ALPS.JB9.MP.V1.4_WINGTECH92_WET_JB9/source/alps.test/mediatek/preloader/out/pmic.o
                0x0020db5f                hw_bc11_init
 .text.hw_bc11_DCD
                0x0020db9e       0x44 /alps/mprelease/MPload/ALPS.JB9.MP.V1.4_WINGTECH92_WET_JB9/source/alps.test/mediatek/preloader/out/pmic.o
                0x0020db9f                hw_bc11_DCD
 .text.hw_bc11_stepA1
                0x0020dbe2       0x30 /alps/mprelease/MPload/ALPS.JB9.MP.V1.4_WINGTECH92_WET_JB9/source/alps.test/mediatek/preloader/out/pmic.o
                0x0020dbe3                hw_bc11_stepA1
 .text.hw_bc11_stepB1
                0x0020dc12       0x36 /alps/mprelease/MPload/ALPS.JB9.MP.V1.4_WINGTECH92_WET_JB9/source/alps.test/mediatek/preloader/out/pmic.o
                0x0020dc13                hw_bc11_stepB1
 .text.hw_bc11_stepC1
                0x0020dc48       0x36 /alps/mprelease/MPload/ALPS.JB9.MP.V1.4_WINGTECH92_WET_JB9/source/alps.test/mediatek/preloader/out/pmic.o
                0x0020dc49                hw_bc11_stepC1
 .text.hw_bc11_stepA2
                0x0020dc7e       0x3c /alps/mprelease/MPload/ALPS.JB9.MP.V1.4_WINGTECH92_WET_JB9/source/alps.test/mediatek/preloader/out/pmic.o
                0x0020dc7f                hw_bc11_stepA2
 .text.hw_bc11_stepB2
                0x0020dcba       0x36 /alps/mprelease/MPload/ALPS.JB9.MP.V1.4_WINGTECH92_WET_JB9/source/alps.test/mediatek/preloader/out/pmic.o
                0x0020dcbb                hw_bc11_stepB2
 .text.hw_bc11_done
                0x0020dcf0       0x2e /alps/mprelease/MPload/ALPS.JB9.MP.V1.4_WINGTECH92_WET_JB9/source/alps.test/mediatek/preloader/out/pmic.o
                0x0020dcf1                hw_bc11_done
 .text.hw_charger_type_detection
                0x0020dd20       0xac /alps/mprelease/MPload/ALPS.JB9.MP.V1.4_WINGTECH92_WET_JB9/source/alps.test/mediatek/preloader/out/pmic.o
                0x0020dd21                hw_charger_type_detection
 .text.mt_charger_type_detection
                0x0020ddcc       0x44 /alps/mprelease/MPload/ALPS.JB9.MP.V1.4_WINGTECH92_WET_JB9/source/alps.test/mediatek/preloader/out/pmic.o
                0x0020ddcd                mt_charger_type_detection
 .text.get_pmic_chip_version
                0x0020de10       0x1a /alps/mprelease/MPload/ALPS.JB9.MP.V1.4_WINGTECH92_WET_JB9/source/alps.test/mediatek/preloader/out/pmic.o
                0x0020de11                get_pmic_chip_version
 .text.pmic_detect_powerkey
                0x0020de2c       0x3c /alps/mprelease/MPload/ALPS.JB9.MP.V1.4_WINGTECH92_WET_JB9/source/alps.test/mediatek/preloader/out/pmic.o
                0x0020de2d                pmic_detect_powerkey
 .text.pmic_IsUsbCableIn
                0x0020de68       0x26 /alps/mprelease/MPload/ALPS.JB9.MP.V1.4_WINGTECH92_WET_JB9/source/alps.test/mediatek/preloader/out/pmic.o
                0x0020de69                pmic_IsUsbCableIn
 .text.hw_set_cc
                0x0020de90      0x228 /alps/mprelease/MPload/ALPS.JB9.MP.V1.4_WINGTECH92_WET_JB9/source/alps.test/mediatek/preloader/out/pmic.o
                0x0020de91                hw_set_cc
 .text.pl_hw_ulc_det
                0x0020e0b8       0x1e /alps/mprelease/MPload/ALPS.JB9.MP.V1.4_WINGTECH92_WET_JB9/source/alps.test/mediatek/preloader/out/pmic.o
                0x0020e0b9                pl_hw_ulc_det
 .text.hw_check_battery
                0x0020e0d8       0x94 /alps/mprelease/MPload/ALPS.JB9.MP.V1.4_WINGTECH92_WET_JB9/source/alps.test/mediatek/preloader/out/pmic.o
                0x0020e0d9                hw_check_battery
 .text.pl_charging
                0x0020e16c       0x90 /alps/mprelease/MPload/ALPS.JB9.MP.V1.4_WINGTECH92_WET_JB9/source/alps.test/mediatek/preloader/out/pmic.o
                0x0020e16d                pl_charging
 .text.pl_kick_chr_wdt
                0x0020e1fc       0x42 /alps/mprelease/MPload/ALPS.JB9.MP.V1.4_WINGTECH92_WET_JB9/source/alps.test/mediatek/preloader/out/pmic.o
                0x0020e1fd                pl_kick_chr_wdt
 .text.pl_close_pre_chr_led
                0x0020e240       0x20 /alps/mprelease/MPload/ALPS.JB9.MP.V1.4_WINGTECH92_WET_JB9/source/alps.test/mediatek/preloader/out/pmic.o
                0x0020e241                pl_close_pre_chr_led
 .text.pmic_init
                0x0020e260       0xa0 /alps/mprelease/MPload/ALPS.JB9.MP.V1.4_WINGTECH92_WET_JB9/source/alps.test/mediatek/preloader/out/pmic.o
                0x0020e261                pmic_init
 .text.wait_for_fsm_vldclr
                0x0020e300        0xc /alps/mprelease/MPload/ALPS.JB9.MP.V1.4_WINGTECH92_WET_JB9/source/alps.test/mediatek/preloader/out/pmic_wrap_init.o
 .text.wait_for_sync
                0x0020e30c        0xc /alps/mprelease/MPload/ALPS.JB9.MP.V1.4_WINGTECH92_WET_JB9/source/alps.test/mediatek/preloader/out/pmic_wrap_init.o
 .text.wait_for_idle_and_sync
                0x0020e318       0x16 /alps/mprelease/MPload/ALPS.JB9.MP.V1.4_WINGTECH92_WET_JB9/source/alps.test/mediatek/preloader/out/pmic_wrap_init.o
 .text.wait_for_cipher_ready
                0x0020e32e        0xa /alps/mprelease/MPload/ALPS.JB9.MP.V1.4_WINGTECH92_WET_JB9/source/alps.test/mediatek/preloader/out/pmic_wrap_init.o
 .text.wait_for_state_ready_init.constprop.3
                0x0020e338       0x50 /alps/mprelease/MPload/ALPS.JB9.MP.V1.4_WINGTECH92_WET_JB9/source/alps.test/mediatek/preloader/out/pmic_wrap_init.o
 .text.pwrap_dump_ap_register
                0x0020e388       0x34 /alps/mprelease/MPload/ALPS.JB9.MP.V1.4_WINGTECH92_WET_JB9/source/alps.test/mediatek/preloader/out/pmic_wrap_init.o
                0x0020e389                pwrap_dump_ap_register
 .text._pwrap_wacs2_nochk
                0x0020e3bc      0x14c /alps/mprelease/MPload/ALPS.JB9.MP.V1.4_WINGTECH92_WET_JB9/source/alps.test/mediatek/preloader/out/pmic_wrap_init.o
 .text.pwrap_write_nochk
                0x0020e508        0xe /alps/mprelease/MPload/ALPS.JB9.MP.V1.4_WINGTECH92_WET_JB9/source/alps.test/mediatek/preloader/out/pmic_wrap_init.o
 .text.pwrap_init
                0x0020e518      0x66c /alps/mprelease/MPload/ALPS.JB9.MP.V1.4_WINGTECH92_WET_JB9/source/alps.test/mediatek/preloader/out/pmic_wrap_init.o
                0x0020e519                pwrap_init
 .text.pwrap_wacs2
                0x0020eb84      0x1c8 /alps/mprelease/MPload/ALPS.JB9.MP.V1.4_WINGTECH92_WET_JB9/source/alps.test/mediatek/preloader/out/pmic_wrap_init.o
                0x0020eb85                pwrap_wacs2
 .text.pwrap_write
                0x0020ed4c        0xe /alps/mprelease/MPload/ALPS.JB9.MP.V1.4_WINGTECH92_WET_JB9/source/alps.test/mediatek/preloader/out/pmic_wrap_init.o
                0x0020ed4d                pwrap_write
 .text.pwrap_read
                0x0020ed5a        0xe /alps/mprelease/MPload/ALPS.JB9.MP.V1.4_WINGTECH92_WET_JB9/source/alps.test/mediatek/preloader/out/pmic_wrap_init.o
                0x0020ed5b                pwrap_read
 .text.pwrap_init_preloader
                0x0020ed68       0x44 /alps/mprelease/MPload/ALPS.JB9.MP.V1.4_WINGTECH92_WET_JB9/source/alps.test/mediatek/preloader/out/pmic_wrap_init.o
                0x0020ed69                pwrap_init_preloader
 .text.outchar  0x0020edac       0x44 /alps/mprelease/MPload/ALPS.JB9.MP.V1.4_WINGTECH92_WET_JB9/source/alps.test/mediatek/preloader/out/print.o
 .text.outhex   0x0020edf0       0x3a /alps/mprelease/MPload/ALPS.JB9.MP.V1.4_WINGTECH92_WET_JB9/source/alps.test/mediatek/preloader/out/print.o
 .text.outdec   0x0020ee2a       0x28 /alps/mprelease/MPload/ALPS.JB9.MP.V1.4_WINGTECH92_WET_JB9/source/alps.test/mediatek/preloader/out/print.o
 .text.outstr   0x0020ee52       0x22 /alps/mprelease/MPload/ALPS.JB9.MP.V1.4_WINGTECH92_WET_JB9/source/alps.test/mediatek/preloader/out/print.o
 .text.log_buf_ctrl
                0x0020ee74       0xfc /alps/mprelease/MPload/ALPS.JB9.MP.V1.4_WINGTECH92_WET_JB9/source/alps.test/mediatek/preloader/out/print.o
                0x0020ee75                log_buf_ctrl
 .text.log_ctrl
                0x0020ef70       0x48 /alps/mprelease/MPload/ALPS.JB9.MP.V1.4_WINGTECH92_WET_JB9/source/alps.test/mediatek/preloader/out/print.o
                0x0020ef71                log_ctrl
 .text.log_status
                0x0020efb8       0x14 /alps/mprelease/MPload/ALPS.JB9.MP.V1.4_WINGTECH92_WET_JB9/source/alps.test/mediatek/preloader/out/print.o
                0x0020efb9                log_status
 .text.vprint   0x0020efcc      0x138 /alps/mprelease/MPload/ALPS.JB9.MP.V1.4_WINGTECH92_WET_JB9/source/alps.test/mediatek/preloader/out/print.o
                0x0020efcd                vprint
 .text.print    0x0020f104       0x18 /alps/mprelease/MPload/ALPS.JB9.MP.V1.4_WINGTECH92_WET_JB9/source/alps.test/mediatek/preloader/out/print.o
                0x0020f105                print
 .text.dbg_print
                0x0020f11c       0x12 /alps/mprelease/MPload/ALPS.JB9.MP.V1.4_WINGTECH92_WET_JB9/source/alps.test/mediatek/preloader/out/print.o
                0x0020f11d                dbg_print
 .text.rtc_mktime
                0x0020f130       0x78 /alps/mprelease/MPload/ALPS.JB9.MP.V1.4_WINGTECH92_WET_JB9/source/alps.test/mediatek/preloader/out/rtc.o
 .text.RTC_Read
                0x0020f1a8       0x14 /alps/mprelease/MPload/ALPS.JB9.MP.V1.4_WINGTECH92_WET_JB9/source/alps.test/mediatek/preloader/out/rtc.o
 .text.RTC_Write
                0x0020f1bc        0x4 /alps/mprelease/MPload/ALPS.JB9.MP.V1.4_WINGTECH92_WET_JB9/source/alps.test/mediatek/preloader/out/rtc.o
 .text.Write_trigger
                0x0020f1c0       0x44 /alps/mprelease/MPload/ALPS.JB9.MP.V1.4_WINGTECH92_WET_JB9/source/alps.test/mediatek/preloader/out/rtc.o
 .text.rtc_gpio_init
                0x0020f204       0x28 /alps/mprelease/MPload/ALPS.JB9.MP.V1.4_WINGTECH92_WET_JB9/source/alps.test/mediatek/preloader/out/rtc.o
 .text.rtc_xosc_write
                0x0020f22c       0x3a /alps/mprelease/MPload/ALPS.JB9.MP.V1.4_WINGTECH92_WET_JB9/source/alps.test/mediatek/preloader/out/rtc.o
 .text.get_frequency_meter
                0x0020f268       0xfc /alps/mprelease/MPload/ALPS.JB9.MP.V1.4_WINGTECH92_WET_JB9/source/alps.test/mediatek/preloader/out/rtc.o
 .text.eosc_cali
                0x0020f364       0xa8 /alps/mprelease/MPload/ALPS.JB9.MP.V1.4_WINGTECH92_WET_JB9/source/alps.test/mediatek/preloader/out/rtc.o
 .text.rtc_measure_four_clock
                0x0020f40c       0xb6 /alps/mprelease/MPload/ALPS.JB9.MP.V1.4_WINGTECH92_WET_JB9/source/alps.test/mediatek/preloader/out/rtc.o
 .text.Writeif_unlock
                0x0020f4c2       0x2c /alps/mprelease/MPload/ALPS.JB9.MP.V1.4_WINGTECH92_WET_JB9/source/alps.test/mediatek/preloader/out/rtc.o
 .text.rtc_lpd_init
                0x0020f4ee       0x88 /alps/mprelease/MPload/ALPS.JB9.MP.V1.4_WINGTECH92_WET_JB9/source/alps.test/mediatek/preloader/out/rtc.o
 .text.rtc_2sec_stat_clear
                0x0020f578       0x68 /alps/mprelease/MPload/ALPS.JB9.MP.V1.4_WINGTECH92_WET_JB9/source/alps.test/mediatek/preloader/out/rtc.o
 .text.rtc_android_init
                0x0020f5e0      0x10e /alps/mprelease/MPload/ALPS.JB9.MP.V1.4_WINGTECH92_WET_JB9/source/alps.test/mediatek/preloader/out/rtc.o
 .text.rtc_save_2sec_stat
                0x0020f6f0       0x94 /alps/mprelease/MPload/ALPS.JB9.MP.V1.4_WINGTECH92_WET_JB9/source/alps.test/mediatek/preloader/out/rtc.o
                0x0020f6f1                rtc_save_2sec_stat
 .text.rtc_switch_mode
                0x0020f784       0x54 /alps/mprelease/MPload/ALPS.JB9.MP.V1.4_WINGTECH92_WET_JB9/source/alps.test/mediatek/preloader/out/rtc.o
 .text.rtc_frequency_meter_check
                0x0020f7d8       0xcc /alps/mprelease/MPload/ALPS.JB9.MP.V1.4_WINGTECH92_WET_JB9/source/alps.test/mediatek/preloader/out/rtc.o
 .text.rtc_first_boot_init
                0x0020f8a4       0x60 /alps/mprelease/MPload/ALPS.JB9.MP.V1.4_WINGTECH92_WET_JB9/source/alps.test/mediatek/preloader/out/rtc.o
 .text.rtc_recovery_flow
                0x0020f904       0xc0 /alps/mprelease/MPload/ALPS.JB9.MP.V1.4_WINGTECH92_WET_JB9/source/alps.test/mediatek/preloader/out/rtc.o
 .text.rtc_mark_bypass_pwrkey
                0x0020f9c4       0x20 /alps/mprelease/MPload/ALPS.JB9.MP.V1.4_WINGTECH92_WET_JB9/source/alps.test/mediatek/preloader/out/rtc.o
                0x0020f9c5                rtc_mark_bypass_pwrkey
 .text.rtc_boot_check
                0x0020f9e4      0x618 /alps/mprelease/MPload/ALPS.JB9.MP.V1.4_WINGTECH92_WET_JB9/source/alps.test/mediatek/preloader/out/rtc.o
                0x0020f9e5                rtc_boot_check
 .text.pl_power_off
                0x0020fffc       0x24 /alps/mprelease/MPload/ALPS.JB9.MP.V1.4_WINGTECH92_WET_JB9/source/alps.test/mediatek/preloader/out/rtc.o
                0x0020fffd                pl_power_off
 .text.rtc_2sec_reboot_check
                0x00210020        0xc /alps/mprelease/MPload/ALPS.JB9.MP.V1.4_WINGTECH92_WET_JB9/source/alps.test/mediatek/preloader/out/rtc.o
                0x00210021                rtc_2sec_reboot_check
 .text.rtc_enable_2sec_reboot
                0x0021002c       0x24 /alps/mprelease/MPload/ALPS.JB9.MP.V1.4_WINGTECH92_WET_JB9/source/alps.test/mediatek/preloader/out/rtc.o
                0x0021002d                rtc_enable_2sec_reboot
 .text.rtc_bbpu_power_on
                0x00210050       0x40 /alps/mprelease/MPload/ALPS.JB9.MP.V1.4_WINGTECH92_WET_JB9/source/alps.test/mediatek/preloader/out/rtc.o
                0x00210051                rtc_bbpu_power_on
 .text.sec_auth
                0x00210090       0x48 /alps/mprelease/MPload/ALPS.JB9.MP.V1.4_WINGTECH92_WET_JB9/source/alps.test/mediatek/preloader/out/sec_auth.o
                0x00210091                sec_auth
 .text.sec_hash
                0x002100d8        0x4 /alps/mprelease/MPload/ALPS.JB9.MP.V1.4_WINGTECH92_WET_JB9/source/alps.test/mediatek/preloader/out/sec_auth.o
                0x002100d9                sec_hash
 .text.da_auth_init
                0x002100dc       0x28 /alps/mprelease/MPload/ALPS.JB9.MP.V1.4_WINGTECH92_WET_JB9/source/alps.test/mediatek/preloader/out/sec_auth.o
                0x002100dd                da_auth_init
 .text.img_auth_init
                0x00210104       0x28 /alps/mprelease/MPload/ALPS.JB9.MP.V1.4_WINGTECH92_WET_JB9/source/alps.test/mediatek/preloader/out/sec_auth.o
                0x00210105                img_auth_init
 .text.sec_boot_img_check
                0x0021012c       0x2c /alps/mprelease/MPload/ALPS.JB9.MP.V1.4_WINGTECH92_WET_JB9/source/alps.test/mediatek/preloader/out/sec_boot.o
                0x0021012d                sec_boot_img_check
 .text.sec_boot_check
                0x00210158      0x140 /alps/mprelease/MPload/ALPS.JB9.MP.V1.4_WINGTECH92_WET_JB9/source/alps.test/mediatek/preloader/out/sec_boot.o
                0x00210159                sec_boot_check
 .text.sec_ctrl_init
                0x00210298        0x2 /alps/mprelease/MPload/ALPS.JB9.MP.V1.4_WINGTECH92_WET_JB9/source/alps.test/mediatek/preloader/out/sec_ctrl.o
                0x00210299                sec_ctrl_init
 .text.sec_flashtool_cfg_init
                0x0021029a        0x2 /alps/mprelease/MPload/ALPS.JB9.MP.V1.4_WINGTECH92_WET_JB9/source/alps.test/mediatek/preloader/out/sec_flashtool_cfg.o
                0x0021029b                sec_flashtool_cfg_init
 .text.sec_key_init
                0x0021029c       0x7c /alps/mprelease/MPload/ALPS.JB9.MP.V1.4_WINGTECH92_WET_JB9/source/alps.test/mediatek/preloader/out/sec_key.o
                0x0021029d                sec_key_init
 .text.sec_cfg_load
                0x00210318       0xc0 /alps/mprelease/MPload/ALPS.JB9.MP.V1.4_WINGTECH92_WET_JB9/source/alps.test/mediatek/preloader/out/sec.o
                0x00210319                sec_cfg_load
 .text.sec_cfg_save
                0x002103d8       0x9c /alps/mprelease/MPload/ALPS.JB9.MP.V1.4_WINGTECH92_WET_JB9/source/alps.test/mediatek/preloader/out/sec.o
                0x002103d9                sec_cfg_save
 .text.sec_lib_init
                0x00210474      0x160 /alps/mprelease/MPload/ALPS.JB9.MP.V1.4_WINGTECH92_WET_JB9/source/alps.test/mediatek/preloader/out/sec.o
                0x00210475                sec_lib_init
 .text.is_BR_cmd_disabled
                0x002105d4       0x58 /alps/mprelease/MPload/ALPS.JB9.MP.V1.4_WINGTECH92_WET_JB9/source/alps.test/mediatek/preloader/out/sec.o
                0x002105d5                is_BR_cmd_disabled
 .text.sec_region_check
                0x0021062c       0xbc /alps/mprelease/MPload/ALPS.JB9.MP.V1.4_WINGTECH92_WET_JB9/source/alps.test/mediatek/preloader/out/sec_region.o
                0x0021062d                sec_region_check
 .text.sec_rom_info_init
                0x002106e8       0x34 /alps/mprelease/MPload/ALPS.JB9.MP.V1.4_WINGTECH92_WET_JB9/source/alps.test/mediatek/preloader/out/sec_rom_info.o
                0x002106e9                sec_rom_info_init
 .text.factory_mode_valid
                0x0021071c       0x48 /alps/mprelease/MPload/ALPS.JB9.MP.V1.4_WINGTECH92_WET_JB9/source/alps.test/mediatek/preloader/out/sec_secroimg.o
                0x0021071d                factory_mode_valid
 .text.sec_lib_read_secro
                0x00210764       0xec /alps/mprelease/MPload/ALPS.JB9.MP.V1.4_WINGTECH92_WET_JB9/source/alps.test/mediatek/preloader/out/sec_secroimg.o
                0x00210765                sec_lib_read_secro
 .text.sec2plname
                0x00210850      0x17c /alps/mprelease/MPload/ALPS.JB9.MP.V1.4_WINGTECH92_WET_JB9/source/alps.test/mediatek/preloader/out/sec_util.o
                0x00210851                sec2plname
 .text.sec_util_get_secro_buf
                0x002109cc       0x18 /alps/mprelease/MPload/ALPS.JB9.MP.V1.4_WINGTECH92_WET_JB9/source/alps.test/mediatek/preloader/out/sec_util.o
                0x002109cd                sec_util_get_secro_buf
 .text.sec_util_get_img_buf
                0x002109e4       0x18 /alps/mprelease/MPload/ALPS.JB9.MP.V1.4_WINGTECH92_WET_JB9/source/alps.test/mediatek/preloader/out/sec_util.o
                0x002109e5                sec_util_get_img_buf
 .text.sec_util_get_chunk_buf
                0x002109fc       0x18 /alps/mprelease/MPload/ALPS.JB9.MP.V1.4_WINGTECH92_WET_JB9/source/alps.test/mediatek/preloader/out/sec_util.o
                0x002109fd                sec_util_get_chunk_buf
 .text.sec_util_get_working_buf
                0x00210a14       0x18 /alps/mprelease/MPload/ALPS.JB9.MP.V1.4_WINGTECH92_WET_JB9/source/alps.test/mediatek/preloader/out/sec_util.o
                0x00210a15                sec_util_get_working_buf
 .text.sec_util_read_image
                0x00210a2c      0x100 /alps/mprelease/MPload/ALPS.JB9.MP.V1.4_WINGTECH92_WET_JB9/source/alps.test/mediatek/preloader/out/sec_util.o
                0x00210a2d                sec_util_read_image
 .text.sec_util_brom_download_recovery_check
                0x00210b2c      0x1bc /alps/mprelease/MPload/ALPS.JB9.MP.V1.4_WINGTECH92_WET_JB9/source/alps.test/mediatek/preloader/out/sec_util.o
                0x00210b2d                sec_util_brom_download_recovery_check
 .text.strchr   0x00210ce8       0x14 /alps/mprelease/MPload/ALPS.JB9.MP.V1.4_WINGTECH92_WET_JB9/source/alps.test/mediatek/preloader/out/stdlib.o
                0x00210ce9                strchr
 .text.atoi     0x00210cfc       0x5c /alps/mprelease/MPload/ALPS.JB9.MP.V1.4_WINGTECH92_WET_JB9/source/alps.test/mediatek/preloader/out/stdlib.o
                0x00210cfd                atoi
 .text.strlen   0x00210d58       0x10 /alps/mprelease/MPload/ALPS.JB9.MP.V1.4_WINGTECH92_WET_JB9/source/alps.test/mediatek/preloader/out/string.o
                0x00210d59                strlen
 .text.strcmp   0x00210d68       0x16 /alps/mprelease/MPload/ALPS.JB9.MP.V1.4_WINGTECH92_WET_JB9/source/alps.test/mediatek/preloader/out/string.o
                0x00210d69                strcmp
 .text.strncmp  0x00210d7e       0x1e /alps/mprelease/MPload/ALPS.JB9.MP.V1.4_WINGTECH92_WET_JB9/source/alps.test/mediatek/preloader/out/string.o
                0x00210d7f                strncmp
 .text.memset   0x00210d9c       0x10 /alps/mprelease/MPload/ALPS.JB9.MP.V1.4_WINGTECH92_WET_JB9/source/alps.test/mediatek/preloader/out/string.o
                0x00210d9d                memset
 .text.memcpy   0x00210dac       0x12 /alps/mprelease/MPload/ALPS.JB9.MP.V1.4_WINGTECH92_WET_JB9/source/alps.test/mediatek/preloader/out/string.o
                0x00210dad                memcpy
 .text.memcmp   0x00210dbe       0x1c /alps/mprelease/MPload/ALPS.JB9.MP.V1.4_WINGTECH92_WET_JB9/source/alps.test/mediatek/preloader/out/string.o
                0x00210dbf                memcmp
 .text.gpt4_get_current_tick
                0x00210ddc        0xc /alps/mprelease/MPload/ALPS.JB9.MP.V1.4_WINGTECH92_WET_JB9/source/alps.test/mediatek/preloader/out/timer.o
                0x00210ddd                gpt4_get_current_tick
 .text.gpt4_timeout_tick
                0x00210de8       0x22 /alps/mprelease/MPload/ALPS.JB9.MP.V1.4_WINGTECH92_WET_JB9/source/alps.test/mediatek/preloader/out/timer.o
                0x00210de9                gpt4_timeout_tick
 .text.gpt4_time2tick_us
                0x00210e0c       0x18 /alps/mprelease/MPload/ALPS.JB9.MP.V1.4_WINGTECH92_WET_JB9/source/alps.test/mediatek/preloader/out/timer.o
                0x00210e0d                gpt4_time2tick_us
 .text.gpt_busy_wait_us
                0x00210e24       0x1c /alps/mprelease/MPload/ALPS.JB9.MP.V1.4_WINGTECH92_WET_JB9/source/alps.test/mediatek/preloader/out/timer.o
                0x00210e25                gpt_busy_wait_us
 .text.gpt_busy_wait_ms
                0x00210e40       0x44 /alps/mprelease/MPload/ALPS.JB9.MP.V1.4_WINGTECH92_WET_JB9/source/alps.test/mediatek/preloader/out/timer.o
                0x00210e41                gpt_busy_wait_ms
 .text.get_timer
                0x00210e84       0x80 /alps/mprelease/MPload/ALPS.JB9.MP.V1.4_WINGTECH92_WET_JB9/source/alps.test/mediatek/preloader/out/timer.o
                0x00210e85                get_timer
 .text.mdelay   0x00210f04        0x4 /alps/mprelease/MPload/ALPS.JB9.MP.V1.4_WINGTECH92_WET_JB9/source/alps.test/mediatek/preloader/out/timer.o
                0x00210f05                mdelay
 .text.udelay   0x00210f08        0x4 /alps/mprelease/MPload/ALPS.JB9.MP.V1.4_WINGTECH92_WET_JB9/source/alps.test/mediatek/preloader/out/timer.o
                0x00210f09                udelay
 .text.mtk_timer_init
                0x00210f0c       0x50 /alps/mprelease/MPload/ALPS.JB9.MP.V1.4_WINGTECH92_WET_JB9/source/alps.test/mediatek/preloader/out/timer.o
                0x00210f0d                mtk_timer_init
 .text.serial_setbrg
                0x00210f5c       0x74 /alps/mprelease/MPload/ALPS.JB9.MP.V1.4_WINGTECH92_WET_JB9/source/alps.test/mediatek/preloader/out/uart.o
                0x00210f5d                serial_setbrg
 .text.mtk_serial_set_current_uart
                0x00210fd0       0x10 /alps/mprelease/MPload/ALPS.JB9.MP.V1.4_WINGTECH92_WET_JB9/source/alps.test/mediatek/preloader/out/uart.o
                0x00210fd1                mtk_serial_set_current_uart
 .text.mtk_uart_init
                0x00210fe0      0x138 /alps/mprelease/MPload/ALPS.JB9.MP.V1.4_WINGTECH92_WET_JB9/source/alps.test/mediatek/preloader/out/uart.o
                0x00210fe1                mtk_uart_init
 .text.PutUARTByte
                0x00211118       0x28 /alps/mprelease/MPload/ALPS.JB9.MP.V1.4_WINGTECH92_WET_JB9/source/alps.test/mediatek/preloader/out/uart.o
                0x00211119                PutUARTByte
 .text.GetUARTBytes
                0x00211140       0x50 /alps/mprelease/MPload/ALPS.JB9.MP.V1.4_WINGTECH92_WET_JB9/source/alps.test/mediatek/preloader/out/uart.o
                0x00211141                GetUARTBytes
 .text.mt_read_fifo
                0x00211190       0xa0 /alps/mprelease/MPload/ALPS.JB9.MP.V1.4_WINGTECH92_WET_JB9/source/alps.test/mediatek/preloader/out/usbd.o
 .text.mt_find_ep
                0x00211230       0x38 /alps/mprelease/MPload/ALPS.JB9.MP.V1.4_WINGTECH92_WET_JB9/source/alps.test/mediatek/preloader/out/usbd.o
 .text.mt_udc_flush_fifo
                0x00211268       0x4c /alps/mprelease/MPload/ALPS.JB9.MP.V1.4_WINGTECH92_WET_JB9/source/alps.test/mediatek/preloader/out/usbd.o
 .text.mt_write_fifo
                0x002112b4       0x84 /alps/mprelease/MPload/ALPS.JB9.MP.V1.4_WINGTECH92_WET_JB9/source/alps.test/mediatek/preloader/out/usbd.o
 .text.mt_udc_ep0_write
                0x00211338       0x6c /alps/mprelease/MPload/ALPS.JB9.MP.V1.4_WINGTECH92_WET_JB9/source/alps.test/mediatek/preloader/out/usbd.o
 .text.mt_udc_epx_handler
                0x002113a4       0x7c /alps/mprelease/MPload/ALPS.JB9.MP.V1.4_WINGTECH92_WET_JB9/source/alps.test/mediatek/preloader/out/usbd.o
 .text.mt_udc_reset
                0x00211420       0xa8 /alps/mprelease/MPload/ALPS.JB9.MP.V1.4_WINGTECH92_WET_JB9/source/alps.test/mediatek/preloader/out/usbd.o
 .text.copy_desc
                0x002114c8       0x2c /alps/mprelease/MPload/ALPS.JB9.MP.V1.4_WINGTECH92_WET_JB9/source/alps.test/mediatek/preloader/out/usbd.o
 .text.mt_udc_irq
                0x002114f4      0x574 /alps/mprelease/MPload/ALPS.JB9.MP.V1.4_WINGTECH92_WET_JB9/source/alps.test/mediatek/preloader/out/usbd.o
                0x002114f5                mt_udc_irq
 .text.mt_ep_write
                0x00211a68       0x38 /alps/mprelease/MPload/ALPS.JB9.MP.V1.4_WINGTECH92_WET_JB9/source/alps.test/mediatek/preloader/out/usbd.o
                0x00211a69                mt_ep_write
 .text.mt_ep_busy
                0x00211aa0       0x2c /alps/mprelease/MPload/ALPS.JB9.MP.V1.4_WINGTECH92_WET_JB9/source/alps.test/mediatek/preloader/out/usbd.o
                0x00211aa1                mt_ep_busy
 .text.mt_setup_ep
                0x00211acc      0x170 /alps/mprelease/MPload/ALPS.JB9.MP.V1.4_WINGTECH92_WET_JB9/source/alps.test/mediatek/preloader/out/usbd.o
                0x00211acd                mt_setup_ep
 .text.mt_usb_connect_internal
                0x00211c3c       0x10 /alps/mprelease/MPload/ALPS.JB9.MP.V1.4_WINGTECH92_WET_JB9/source/alps.test/mediatek/preloader/out/usbd.o
                0x00211c3d                mt_usb_connect_internal
 .text.mt_usb_disconnect_internal
                0x00211c4c       0x10 /alps/mprelease/MPload/ALPS.JB9.MP.V1.4_WINGTECH92_WET_JB9/source/alps.test/mediatek/preloader/out/usbd.o
                0x00211c4d                mt_usb_disconnect_internal
 .text.udc_enable
                0x00211c5c       0x44 /alps/mprelease/MPload/ALPS.JB9.MP.V1.4_WINGTECH92_WET_JB9/source/alps.test/mediatek/preloader/out/usbd.o
                0x00211c5d                udc_enable
 .text.usb_service_offline
                0x00211ca0        0xe /alps/mprelease/MPload/ALPS.JB9.MP.V1.4_WINGTECH92_WET_JB9/source/alps.test/mediatek/preloader/out/usbd.o
                0x00211ca1                usb_service_offline
 .text.is_uart_cable_inserted
                0x00211cb0      0x104 /alps/mprelease/MPload/ALPS.JB9.MP.V1.4_WINGTECH92_WET_JB9/source/alps.test/mediatek/preloader/out/usbd.o
                0x00211cb1                is_uart_cable_inserted
 .text.mt_usb_phy_poweron
                0x00211db4       0x74 /alps/mprelease/MPload/ALPS.JB9.MP.V1.4_WINGTECH92_WET_JB9/source/alps.test/mediatek/preloader/out/usbphy.o
                0x00211db5                mt_usb_phy_poweron
 .text.mt_usb_phy_savecurrent
                0x00211e28       0xb4 /alps/mprelease/MPload/ALPS.JB9.MP.V1.4_WINGTECH92_WET_JB9/source/alps.test/mediatek/preloader/out/usbphy.o
                0x00211e29                mt_usb_phy_savecurrent
 .text.mt_usb_phy_recover
                0x00211edc      0x14c /alps/mprelease/MPload/ALPS.JB9.MP.V1.4_WINGTECH92_WET_JB9/source/alps.test/mediatek/preloader/out/usbphy.o
                0x00211edd                mt_usb_phy_recover
 .text.Charger_Detect_Init
                0x00212028       0x10 /alps/mprelease/MPload/ALPS.JB9.MP.V1.4_WINGTECH92_WET_JB9/source/alps.test/mediatek/preloader/out/usbphy.o
                0x00212029                Charger_Detect_Init
 .text.Charger_Detect_Release
                0x00212038       0x10 /alps/mprelease/MPload/ALPS.JB9.MP.V1.4_WINGTECH92_WET_JB9/source/alps.test/mediatek/preloader/out/usbphy.o
                0x00212039                Charger_Detect_Release
 .text.str2wide
                0x00212048       0x22 /alps/mprelease/MPload/ALPS.JB9.MP.V1.4_WINGTECH92_WET_JB9/source/alps.test/mediatek/preloader/out/usbtty.o
 .text.ep_to_buf.constprop.0
                0x0021206c       0x2c /alps/mprelease/MPload/ALPS.JB9.MP.V1.4_WINGTECH92_WET_JB9/source/alps.test/mediatek/preloader/out/usbtty.o
 .text.usb_alloc_urb
                0x00212098       0x54 /alps/mprelease/MPload/ALPS.JB9.MP.V1.4_WINGTECH92_WET_JB9/source/alps.test/mediatek/preloader/out/usbtty.o
                0x00212099                usb_alloc_urb
 .text.usbdl_init
                0x002120ec      0x2fc /alps/mprelease/MPload/ALPS.JB9.MP.V1.4_WINGTECH92_WET_JB9/source/alps.test/mediatek/preloader/out/usbtty.o
                0x002120ed                usbdl_init
 .text.tool_is_present
                0x002123e8       0x10 /alps/mprelease/MPload/ALPS.JB9.MP.V1.4_WINGTECH92_WET_JB9/source/alps.test/mediatek/preloader/out/usbtty.o
                0x002123e9                tool_is_present
 .text.tool_state_update
                0x002123f8       0x10 /alps/mprelease/MPload/ALPS.JB9.MP.V1.4_WINGTECH92_WET_JB9/source/alps.test/mediatek/preloader/out/usbtty.o
                0x002123f9                tool_state_update
 .text.usbdl_configured
                0x00212408       0x10 /alps/mprelease/MPload/ALPS.JB9.MP.V1.4_WINGTECH92_WET_JB9/source/alps.test/mediatek/preloader/out/usbtty.o
                0x00212409                usbdl_configured
 .text.enable_highspeed
                0x00212418       0x74 /alps/mprelease/MPload/ALPS.JB9.MP.V1.4_WINGTECH92_WET_JB9/source/alps.test/mediatek/preloader/out/usbtty.o
                0x00212419                enable_highspeed
 .text.config_usbtty
                0x0021248c       0x44 /alps/mprelease/MPload/ALPS.JB9.MP.V1.4_WINGTECH92_WET_JB9/source/alps.test/mediatek/preloader/out/usbtty.o
                0x0021248d                config_usbtty
 .text.service_interrupts
                0x002124d0       0x60 /alps/mprelease/MPload/ALPS.JB9.MP.V1.4_WINGTECH92_WET_JB9/source/alps.test/mediatek/preloader/out/usbtty.o
                0x002124d1                service_interrupts
 .text.usbdl_poll
                0x00212530       0x7c /alps/mprelease/MPload/ALPS.JB9.MP.V1.4_WINGTECH92_WET_JB9/source/alps.test/mediatek/preloader/out/usbtty.o
                0x00212531                usbdl_poll
 .text.usbdl_flush
                0x002125ac       0x50 /alps/mprelease/MPload/ALPS.JB9.MP.V1.4_WINGTECH92_WET_JB9/source/alps.test/mediatek/preloader/out/usbtty.o
                0x002125ad                usbdl_flush
 .text.mt_usbtty_flush
                0x002125fc        0x4 /alps/mprelease/MPload/ALPS.JB9.MP.V1.4_WINGTECH92_WET_JB9/source/alps.test/mediatek/preloader/out/usbtty.o
                0x002125fd                mt_usbtty_flush
 .text.mt_usbtty_getcn
                0x00212600       0x58 /alps/mprelease/MPload/ALPS.JB9.MP.V1.4_WINGTECH92_WET_JB9/source/alps.test/mediatek/preloader/out/usbtty.o
                0x00212601                mt_usbtty_getcn
 .text.mt_usbtty_putcn
                0x00212658       0x74 /alps/mprelease/MPload/ALPS.JB9.MP.V1.4_WINGTECH92_WET_JB9/source/alps.test/mediatek/preloader/out/usbtty.o
                0x00212659                mt_usbtty_putcn
 .text.mt_usbtty_puts
                0x002126cc       0x58 /alps/mprelease/MPload/ALPS.JB9.MP.V1.4_WINGTECH92_WET_JB9/source/alps.test/mediatek/preloader/out/usbtty.o
                0x002126cd                mt_usbtty_puts
 .text.mt_usbtty_query_data_size
                0x00212724       0x2c /alps/mprelease/MPload/ALPS.JB9.MP.V1.4_WINGTECH92_WET_JB9/source/alps.test/mediatek/preloader/out/usbtty.o
                0x00212725                mt_usbtty_query_data_size
 .text.mtk_wdt_reset
                0x00212750       0x4c /alps/mprelease/MPload/ALPS.JB9.MP.V1.4_WINGTECH92_WET_JB9/source/alps.test/mediatek/preloader/out/wdt.o
 .text.mtk_wdt_mode_config.constprop.1
                0x0021279c       0xa4 /alps/mprelease/MPload/ALPS.JB9.MP.V1.4_WINGTECH92_WET_JB9/source/alps.test/mediatek/preloader/out/wdt.o
 .text.mtk_wdt_restart
                0x00212840       0x10 /alps/mprelease/MPload/ALPS.JB9.MP.V1.4_WINGTECH92_WET_JB9/source/alps.test/mediatek/preloader/out/wdt.o
                0x00212841                mtk_wdt_restart
 .text.mtk_wdt_boot_check
                0x00212850       0x5c /alps/mprelease/MPload/ALPS.JB9.MP.V1.4_WINGTECH92_WET_JB9/source/alps.test/mediatek/preloader/out/wdt.o
                0x00212851                mtk_wdt_boot_check
 .text.mtk_wdt_init
                0x002128ac      0x294 /alps/mprelease/MPload/ALPS.JB9.MP.V1.4_WINGTECH92_WET_JB9/source/alps.test/mediatek/preloader/out/wdt.o
                0x002128ad                mtk_wdt_init
 .text.mtk_arch_reset
                0x00212b40       0x18 /alps/mprelease/MPload/ALPS.JB9.MP.V1.4_WINGTECH92_WET_JB9/source/alps.test/mediatek/preloader/out/wdt.o
                0x00212b41                mtk_arch_reset
 .text.seclib_sec_boot_enabled
                0x00212b58       0xe8 /alps/mprelease/MPload/ALPS.JB9.MP.V1.4_WINGTECH92_WET_JB9/source/alps.test/mediatek/platform/mt6592/preloader/src/SecLib.a(seclib_boot.o)
                0x00212b58                seclib_sec_boot_enabled
 .text.seclib_cfg_print_status
                0x00212c40       0xe8 /alps/mprelease/MPload/ALPS.JB9.MP.V1.4_WINGTECH92_WET_JB9/source/alps.test/mediatek/platform/mt6592/preloader/src/SecLib.a(seclib_boot.o)
                0x00212c40                seclib_cfg_print_status
 .text.seclib_image_check
                0x00212d28      0x31c /alps/mprelease/MPload/ALPS.JB9.MP.V1.4_WINGTECH92_WET_JB9/source/alps.test/mediatek/platform/mt6592/preloader/src/SecLib.a(seclib_boot.o)
                0x00212d28                seclib_image_check
 .text.seclib_sec_usbdl_enabled
                0x00213044       0x8c /alps/mprelease/MPload/ALPS.JB9.MP.V1.4_WINGTECH92_WET_JB9/source/alps.test/mediatek/platform/mt6592/preloader/src/SecLib.a(seclib_dl.o)
                0x00213044                seclib_sec_usbdl_enabled
 .text.seclib_image_hash_compute
                0x002130d0       0x64 /alps/mprelease/MPload/ALPS.JB9.MP.V1.4_WINGTECH92_WET_JB9/source/alps.test/mediatek/platform/mt6592/preloader/src/SecLib.a(seclib_img_hash.o)
                0x002130d0                seclib_image_hash_compute
 .text.seclib_image_allocate_mem
                0x00213134       0x9c /alps/mprelease/MPload/ALPS.JB9.MP.V1.4_WINGTECH92_WET_JB9/source/alps.test/mediatek/platform/mt6592/preloader/src/SecLib.a(seclib_img_verify.o)
 .text.seclib_image_fread
                0x002131d0       0xcc /alps/mprelease/MPload/ALPS.JB9.MP.V1.4_WINGTECH92_WET_JB9/source/alps.test/mediatek/platform/mt6592/preloader/src/SecLib.a(seclib_img_verify.o)
 .text.seclib_gen_hash_by_chunk
                0x0021329c      0x390 /alps/mprelease/MPload/ALPS.JB9.MP.V1.4_WINGTECH92_WET_JB9/source/alps.test/mediatek/platform/mt6592/preloader/src/SecLib.a(seclib_img_verify.o)
 .text.seclib_image_hash_only
                0x0021362c      0x178 /alps/mprelease/MPload/ALPS.JB9.MP.V1.4_WINGTECH92_WET_JB9/source/alps.test/mediatek/platform/mt6592/preloader/src/SecLib.a(seclib_img_verify.o)
                0x0021362c                seclib_image_hash_only
 .text.seclib_image_search_extension
                0x002137a4      0x230 /alps/mprelease/MPload/ALPS.JB9.MP.V1.4_WINGTECH92_WET_JB9/source/alps.test/mediatek/platform/mt6592/preloader/src/SecLib.a(seclib_img_verify.o)
                0x002137a4                seclib_image_search_extension
 .text.seclib_image_verify
                0x002139d4      0x418 /alps/mprelease/MPload/ALPS.JB9.MP.V1.4_WINGTECH92_WET_JB9/source/alps.test/mediatek/platform/mt6592/preloader/src/SecLib.a(seclib_img_verify.o)
                0x002139d4                seclib_image_verify
 .text.seclib_read_sbc_key
                0x00213dec       0x6c /alps/mprelease/MPload/ALPS.JB9.MP.V1.4_WINGTECH92_WET_JB9/source/alps.test/mediatek/platform/mt6592/preloader/src/SecLib.a(seclib_key.o)
                0x00213dec                seclib_read_sbc_key
 .text.seclib_read_sec_cmd_cfg
                0x00213e58       0x74 /alps/mprelease/MPload/ALPS.JB9.MP.V1.4_WINGTECH92_WET_JB9/source/alps.test/mediatek/platform/mt6592/preloader/src/SecLib.a(seclib_key.o)
                0x00213e58                seclib_read_sec_cmd_cfg
 .text.seclib_sej_init
                0x00213ecc       0x20 /alps/mprelease/MPload/ALPS.JB9.MP.V1.4_WINGTECH92_WET_JB9/source/alps.test/mediatek/platform/mt6592/preloader/src/SecLib.a(seclib.o)
                0x00213ecc                seclib_sej_init
 .text.seclib_cust_init
                0x00213eec       0x84 /alps/mprelease/MPload/ALPS.JB9.MP.V1.4_WINGTECH92_WET_JB9/source/alps.test/mediatek/platform/mt6592/preloader/src/SecLib.a(seclib.o)
                0x00213eec                seclib_cust_init
 .text.seclib_check
                0x00213f70        0x4 /alps/mprelease/MPload/ALPS.JB9.MP.V1.4_WINGTECH92_WET_JB9/source/alps.test/mediatek/platform/mt6592/preloader/src/SecLib.a(seclib.o)
                0x00213f70                seclib_check
 .text.seclib_init
                0x00213f74      0x2d0 /alps/mprelease/MPload/ALPS.JB9.MP.V1.4_WINGTECH92_WET_JB9/source/alps.test/mediatek/platform/mt6592/preloader/src/SecLib.a(seclib.o)
                0x00213f74                seclib_init
 .text.seclib_set_img_hdr_ver
                0x00214244      0x104 /alps/mprelease/MPload/ALPS.JB9.MP.V1.4_WINGTECH92_WET_JB9/source/alps.test/mediatek/platform/mt6592/preloader/src/SecLib.a(seclib.o)
                0x00214244                seclib_set_img_hdr_ver
 .text.seclib_secroimg_read
                0x00214348      0x114 /alps/mprelease/MPload/ALPS.JB9.MP.V1.4_WINGTECH92_WET_JB9/source/alps.test/mediatek/platform/mt6592/preloader/src/SecLib.a(seclib_secroimg.o)
                0x00214348                seclib_secroimg_read
 .text.sp_read_swotp
                0x0021445c       0x74 /alps/mprelease/MPload/ALPS.JB9.MP.V1.4_WINGTECH92_WET_JB9/source/alps.test/mediatek/platform/mt6592/preloader/src/SecLib.a(seclib_sej_export.o)
                0x0021445c                sp_read_swotp
 .text.sp_sej_enc
                0x002144d0       0xa8 /alps/mprelease/MPload/ALPS.JB9.MP.V1.4_WINGTECH92_WET_JB9/source/alps.test/mediatek/platform/mt6592/preloader/src/SecLib.a(seclib_sej_export.o)
                0x002144d0                sp_sej_enc
 .text.sp_sej_dec
                0x00214578       0xc4 /alps/mprelease/MPload/ALPS.JB9.MP.V1.4_WINGTECH92_WET_JB9/source/alps.test/mediatek/platform/mt6592/preloader/src/SecLib.a(seclib_sej_export.o)
                0x00214578                sp_sej_dec
 .text.sp_sej_init
                0x0021463c       0x7c /alps/mprelease/MPload/ALPS.JB9.MP.V1.4_WINGTECH92_WET_JB9/source/alps.test/mediatek/platform/mt6592/preloader/src/SecLib.a(seclib_sej_export.o)
                0x0021463c                sp_sej_init
 .text.sp_check_platform
                0x002146b8        0x4 /alps/mprelease/MPload/ALPS.JB9.MP.V1.4_WINGTECH92_WET_JB9/source/alps.test/mediatek/platform/mt6592/preloader/src/SecLib.a(seclib_sej_export.o)
                0x002146b8                sp_check_platform
 .text.seclib_image_hash_dump
                0x002146bc       0x68 /alps/mprelease/MPload/ALPS.JB9.MP.V1.4_WINGTECH92_WET_JB9/source/alps.test/mediatek/platform/mt6592/preloader/src/SecLib.a(seclib_util.o)
                0x002146bc                seclib_image_hash_dump
 .text.get_sec_cfg_cnt_size
                0x00214724        0x8 /alps/mprelease/MPload/ALPS.JB9.MP.V1.4_WINGTECH92_WET_JB9/source/alps.test/mediatek/platform/mt6592/preloader/src/SecLib.a(seclib_util.o)
                0x00214724                get_sec_cfg_cnt_size
 .text.get_seccfg_cipher_len
                0x0021472c        0x8 /alps/mprelease/MPload/ALPS.JB9.MP.V1.4_WINGTECH92_WET_JB9/source/alps.test/mediatek/platform/mt6592/preloader/src/SecLib.a(seccfg_crypto.o)
                0x0021472c                get_seccfg_cipher_len
 .text.seclib_mtk_rsa_n_key_len
                0x00214734        0x8 /alps/mprelease/MPload/ALPS.JB9.MP.V1.4_WINGTECH92_WET_JB9/source/alps.test/mediatek/platform/mt6592/preloader/src/security/auth/DaVerifyLib.a(auth.o)
                0x00214734                seclib_mtk_rsa_n_key_len
 .text.seclib_mtk_rsa_e_key_len
                0x0021473c        0x8 /alps/mprelease/MPload/ALPS.JB9.MP.V1.4_WINGTECH92_WET_JB9/source/alps.test/mediatek/platform/mt6592/preloader/src/security/auth/DaVerifyLib.a(auth.o)
                0x0021473c                seclib_mtk_rsa_e_key_len
 .text.seclib_rsa_init
                0x00214744       0xf0 /alps/mprelease/MPload/ALPS.JB9.MP.V1.4_WINGTECH92_WET_JB9/source/alps.test/mediatek/platform/mt6592/preloader/src/security/auth/DaVerifyLib.a(auth.o)
                0x00214744                seclib_rsa_init
 .text.seclib_rsa_verify
                0x00214834       0xe8 /alps/mprelease/MPload/ALPS.JB9.MP.V1.4_WINGTECH92_WET_JB9/source/alps.test/mediatek/platform/mt6592/preloader/src/security/auth/DaVerifyLib.a(auth.o)
                0x00214834                seclib_rsa_verify
 .text.bgn_read_str
                0x0021491c      0x1f4 /alps/mprelease/MPload/ALPS.JB9.MP.V1.4_WINGTECH92_WET_JB9/source/alps.test/mediatek/platform/mt6592/preloader/src/security/auth/DaVerifyLib.a(bgn_io.o)
                0x0021491c                bgn_read_str
 .text.bgn_read_bin
                0x00214b10       0xa0 /alps/mprelease/MPload/ALPS.JB9.MP.V1.4_WINGTECH92_WET_JB9/source/alps.test/mediatek/platform/mt6592/preloader/src/security/auth/DaVerifyLib.a(bgn_io.o)
                0x00214b10                bgn_read_bin
 .text.bgn_write_bin
                0x00214bb0       0x78 /alps/mprelease/MPload/ALPS.JB9.MP.V1.4_WINGTECH92_WET_JB9/source/alps.test/mediatek/platform/mt6592/preloader/src/security/auth/DaVerifyLib.a(bgn_io.o)
                0x00214bb0                bgn_write_bin
 .text.bgn_grow
                0x00214c28       0x88 /alps/mprelease/MPload/ALPS.JB9.MP.V1.4_WINGTECH92_WET_JB9/source/alps.test/mediatek/platform/mt6592/preloader/src/security/auth/DaVerifyLib.a(bgn_util.o)
                0x00214c28                bgn_grow
 .text.bgn_copy
                0x00214cb0       0x94 /alps/mprelease/MPload/ALPS.JB9.MP.V1.4_WINGTECH92_WET_JB9/source/alps.test/mediatek/platform/mt6592/preloader/src/security/auth/DaVerifyLib.a(bgn_util.o)
                0x00214cb0                bgn_copy
 .text.bgn_lset
                0x00214d44       0x58 /alps/mprelease/MPload/ALPS.JB9.MP.V1.4_WINGTECH92_WET_JB9/source/alps.test/mediatek/platform/mt6592/preloader/src/security/auth/DaVerifyLib.a(bgn_util.o)
                0x00214d44                bgn_lset
 .text.bgn_msb  0x00214d9c       0x64 /alps/mprelease/MPload/ALPS.JB9.MP.V1.4_WINGTECH92_WET_JB9/source/alps.test/mediatek/platform/mt6592/preloader/src/security/auth/DaVerifyLib.a(bgn_util.o)
                0x00214d9c                bgn_msb
 .text.bgn_size
                0x00214e00       0x14 /alps/mprelease/MPload/ALPS.JB9.MP.V1.4_WINGTECH92_WET_JB9/source/alps.test/mediatek/platform/mt6592/preloader/src/security/auth/DaVerifyLib.a(bgn_util.o)
                0x00214e00                bgn_size
 .text.bgn_shift_l
                0x00214e14      0x108 /alps/mprelease/MPload/ALPS.JB9.MP.V1.4_WINGTECH92_WET_JB9/source/alps.test/mediatek/platform/mt6592/preloader/src/security/auth/DaVerifyLib.a(bgn_util.o)
                0x00214e14                bgn_shift_l
 .text.bgn_shift_r
                0x00214f1c       0xd4 /alps/mprelease/MPload/ALPS.JB9.MP.V1.4_WINGTECH92_WET_JB9/source/alps.test/mediatek/platform/mt6592/preloader/src/security/auth/DaVerifyLib.a(bgn_util.o)
                0x00214f1c                bgn_shift_r
 .text.bgn_cmp_abs
                0x00214ff0       0xd0 /alps/mprelease/MPload/ALPS.JB9.MP.V1.4_WINGTECH92_WET_JB9/source/alps.test/mediatek/platform/mt6592/preloader/src/security/auth/DaVerifyLib.a(bgn_util.o)
                0x00214ff0                bgn_cmp_abs
 .text.bgn_cmp_num
                0x002150c0      0x100 /alps/mprelease/MPload/ALPS.JB9.MP.V1.4_WINGTECH92_WET_JB9/source/alps.test/mediatek/platform/mt6592/preloader/src/security/auth/DaVerifyLib.a(bgn_util.o)
                0x002150c0                bgn_cmp_num
 .text.bgn_cmp_int
                0x002151c0       0x40 /alps/mprelease/MPload/ALPS.JB9.MP.V1.4_WINGTECH92_WET_JB9/source/alps.test/mediatek/platform/mt6592/preloader/src/security/auth/DaVerifyLib.a(bgn_util.o)
                0x002151c0                bgn_cmp_int
 .text.bgn_add_abs
                0x00215200      0x140 /alps/mprelease/MPload/ALPS.JB9.MP.V1.4_WINGTECH92_WET_JB9/source/alps.test/mediatek/platform/mt6592/preloader/src/security/auth/DaVerifyLib.a(bgn_util.o)
                0x00215200                bgn_add_abs
 .text.bgn_sub_hlp
                0x00215340       0x80 /alps/mprelease/MPload/ALPS.JB9.MP.V1.4_WINGTECH92_WET_JB9/source/alps.test/mediatek/platform/mt6592/preloader/src/security/auth/DaVerifyLib.a(bgn_util.o)
                0x00215340                bgn_sub_hlp
 .text.bgn_sub_abs
                0x002153c0       0xd0 /alps/mprelease/MPload/ALPS.JB9.MP.V1.4_WINGTECH92_WET_JB9/source/alps.test/mediatek/platform/mt6592/preloader/src/security/auth/DaVerifyLib.a(bgn_util.o)
                0x002153c0                bgn_sub_abs
 .text.bgn_add_bgn
                0x00215490       0x80 /alps/mprelease/MPload/ALPS.JB9.MP.V1.4_WINGTECH92_WET_JB9/source/alps.test/mediatek/platform/mt6592/preloader/src/security/auth/DaVerifyLib.a(bgn_util.o)
                0x00215490                bgn_add_bgn
 .text.bgn_sub_bgn
                0x00215510       0x84 /alps/mprelease/MPload/ALPS.JB9.MP.V1.4_WINGTECH92_WET_JB9/source/alps.test/mediatek/platform/mt6592/preloader/src/security/auth/DaVerifyLib.a(bgn_util.o)
                0x00215510                bgn_sub_bgn
 .text.bgn_add_int
                0x00215594       0x40 /alps/mprelease/MPload/ALPS.JB9.MP.V1.4_WINGTECH92_WET_JB9/source/alps.test/mediatek/platform/mt6592/preloader/src/security/auth/DaVerifyLib.a(bgn_util.o)
                0x00215594                bgn_add_int
 .text.bgn_sub_int
                0x002155d4       0x40 /alps/mprelease/MPload/ALPS.JB9.MP.V1.4_WINGTECH92_WET_JB9/source/alps.test/mediatek/platform/mt6592/preloader/src/security/auth/DaVerifyLib.a(bgn_util.o)
                0x002155d4                bgn_sub_int
 .text.bgn_mul_hlp
                0x00215614      0xa04 /alps/mprelease/MPload/ALPS.JB9.MP.V1.4_WINGTECH92_WET_JB9/source/alps.test/mediatek/platform/mt6592/preloader/src/security/auth/DaVerifyLib.a(bgn_util.o)
                0x00215614                bgn_mul_hlp
 .text.bgn_mul_bgn
                0x00216018      0x154 /alps/mprelease/MPload/ALPS.JB9.MP.V1.4_WINGTECH92_WET_JB9/source/alps.test/mediatek/platform/mt6592/preloader/src/security/auth/DaVerifyLib.a(bgn_util.o)
                0x00216018                bgn_mul_bgn
 .text.bgn_mul_int
                0x0021616c       0x2c /alps/mprelease/MPload/ALPS.JB9.MP.V1.4_WINGTECH92_WET_JB9/source/alps.test/mediatek/platform/mt6592/preloader/src/security/auth/DaVerifyLib.a(bgn_util.o)
                0x0021616c                bgn_mul_int
 .text.bgn_div_bgn
                0x00216198      0x5d0 /alps/mprelease/MPload/ALPS.JB9.MP.V1.4_WINGTECH92_WET_JB9/source/alps.test/mediatek/platform/mt6592/preloader/src/security/auth/DaVerifyLib.a(bgn_util.o)
                0x00216198                bgn_div_bgn
 .text.bgn_mod_bgn
                0x00216768       0xb4 /alps/mprelease/MPload/ALPS.JB9.MP.V1.4_WINGTECH92_WET_JB9/source/alps.test/mediatek/platform/mt6592/preloader/src/security/auth/DaVerifyLib.a(bgn_util.o)
                0x00216768                bgn_mod_bgn
 .text.rsa_pub  0x0021681c       0xb0 /alps/mprelease/MPload/ALPS.JB9.MP.V1.4_WINGTECH92_WET_JB9/source/alps.test/mediatek/platform/mt6592/preloader/src/security/auth/DaVerifyLib.a(rsa.o)
                0x0021681c                rsa_pub
 .text.rsa_verify
                0x002168cc       0xcc /alps/mprelease/MPload/ALPS.JB9.MP.V1.4_WINGTECH92_WET_JB9/source/alps.test/mediatek/platform/mt6592/preloader/src/security/auth/DaVerifyLib.a(rsa.o)
                0x002168cc                rsa_verify
 .text.get_ul   0x00216998       0x24 /alps/mprelease/MPload/ALPS.JB9.MP.V1.4_WINGTECH92_WET_JB9/source/alps.test/mediatek/platform/mt6592/preloader/src/security/auth/DaVerifyLib.a(sha1.o)
                0x00216998                get_ul
 .text.hash_process
                0x002169bc     0x13d4 /alps/mprelease/MPload/ALPS.JB9.MP.V1.4_WINGTECH92_WET_JB9/source/alps.test/mediatek/platform/mt6592/preloader/src/security/auth/DaVerifyLib.a(sha1.o)
 .text.set_ul   0x00217d90       0x20 /alps/mprelease/MPload/ALPS.JB9.MP.V1.4_WINGTECH92_WET_JB9/source/alps.test/mediatek/platform/mt6592/preloader/src/security/auth/DaVerifyLib.a(sha1.o)
                0x00217d90                set_ul
 .text.hash_starts
                0x00217db0       0x4c /alps/mprelease/MPload/ALPS.JB9.MP.V1.4_WINGTECH92_WET_JB9/source/alps.test/mediatek/platform/mt6592/preloader/src/security/auth/DaVerifyLib.a(sha1.o)
                0x00217db0                hash_starts
 .text.hash_update
                0x00217dfc       0xbc /alps/mprelease/MPload/ALPS.JB9.MP.V1.4_WINGTECH92_WET_JB9/source/alps.test/mediatek/platform/mt6592/preloader/src/security/auth/DaVerifyLib.a(sha1.o)
                0x00217dfc                hash_update
 .text.hash_finish
                0x00217eb8       0x98 /alps/mprelease/MPload/ALPS.JB9.MP.V1.4_WINGTECH92_WET_JB9/source/alps.test/mediatek/platform/mt6592/preloader/src/security/auth/DaVerifyLib.a(sha1.o)
                0x00217eb8                hash_finish
 .text.sha1     0x00217f50       0x50 /alps/mprelease/MPload/ALPS.JB9.MP.V1.4_WINGTECH92_WET_JB9/source/alps.test/mediatek/platform/mt6592/preloader/src/security/auth/DaVerifyLib.a(sha1.o)
                0x00217f50                sha1
 .text.malloc   0x00217fa0       0xd0 /alps/mprelease/MPload/ALPS.JB9.MP.V1.4_WINGTECH92_WET_JB9/source/alps.test/mediatek/platform/mt6592/preloader/src/security/auth/DaVerifyLib.a(stdlib.o)
                0x00217fa0                malloc
 .text.free     0x00218070        0x4 /alps/mprelease/MPload/ALPS.JB9.MP.V1.4_WINGTECH92_WET_JB9/source/alps.test/mediatek/platform/mt6592/preloader/src/security/auth/DaVerifyLib.a(stdlib.o)
                0x00218070                free
 .text.bgn_init
                0x00218074       0x18 /alps/mprelease/MPload/ALPS.JB9.MP.V1.4_WINGTECH92_WET_JB9/source/alps.test/mediatek/platform/mt6592/preloader/src/security/auth/DaVerifyLib.a(bgn_core.o)
                0x00218074                bgn_init
 .text.bgn_free
                0x0021808c       0x44 /alps/mprelease/MPload/ALPS.JB9.MP.V1.4_WINGTECH92_WET_JB9/source/alps.test/mediatek/platform/mt6592/preloader/src/security/auth/DaVerifyLib.a(bgn_core.o)
                0x0021808c                bgn_free
 .text.bgn_exp_mod
                0x002180d0      0x400 /alps/mprelease/MPload/ALPS.JB9.MP.V1.4_WINGTECH92_WET_JB9/source/alps.test/mediatek/platform/mt6592/preloader/src/security/auth/DaVerifyLib.a(bgn_core.o)
                0x002180d0                bgn_exp_mod
 .text.montg_init
                0x002184d0       0x40 /alps/mprelease/MPload/ALPS.JB9.MP.V1.4_WINGTECH92_WET_JB9/source/alps.test/mediatek/platform/mt6592/preloader/src/security/auth/DaVerifyLib.a(montg.o)
                0x002184d0                montg_init
 .text.montg_mul
                0x00218510      0x140 /alps/mprelease/MPload/ALPS.JB9.MP.V1.4_WINGTECH92_WET_JB9/source/alps.test/mediatek/platform/mt6592/preloader/src/security/auth/DaVerifyLib.a(montg.o)
                0x00218510                montg_mul
 .text.montg_red
                0x00218650       0x40 /alps/mprelease/MPload/ALPS.JB9.MP.V1.4_WINGTECH92_WET_JB9/source/alps.test/mediatek/platform/mt6592/preloader/src/security/auth/DaVerifyLib.a(montg.o)
                0x00218650                montg_red
 .text.seclib_sbc_enabled
                0x00218690       0x60 /alps/mprelease/MPload/ALPS.JB9.MP.V1.4_WINGTECH92_WET_JB9/source/alps.test/mediatek/platform/mt6592/preloader/src/SecPlat.a(efuse.o)
                0x00218690                seclib_sbc_enabled
 .text.seclib_daa_enabled
                0x002186f0       0x60 /alps/mprelease/MPload/ALPS.JB9.MP.V1.4_WINGTECH92_WET_JB9/source/alps.test/mediatek/platform/mt6592/preloader/src/SecPlat.a(efuse.o)
                0x002186f0                seclib_daa_enabled
 .text.seclib_sla_enabled
                0x00218750       0x60 /alps/mprelease/MPload/ALPS.JB9.MP.V1.4_WINGTECH92_WET_JB9/source/alps.test/mediatek/platform/mt6592/preloader/src/SecPlat.a(efuse.o)
                0x00218750                seclib_sla_enabled
 .text.seclib_3g_disable
                0x002187b0       0x14 /alps/mprelease/MPload/ALPS.JB9.MP.V1.4_WINGTECH92_WET_JB9/source/alps.test/mediatek/platform/mt6592/preloader/src/SecPlat.a(efuse.o)
                0x002187b0                seclib_3g_disable
 .text.seclib_get_devinfo_with_index
                0x002187c4       0x54 /alps/mprelease/MPload/ALPS.JB9.MP.V1.4_WINGTECH92_WET_JB9/source/alps.test/mediatek/platform/mt6592/preloader/src/SecPlat.a(efuse.o)
                0x002187c4                seclib_get_devinfo_with_index
 .text.seclib_brom_meta_mode
                0x00218818       0x10 /alps/mprelease/MPload/ALPS.JB9.MP.V1.4_WINGTECH92_WET_JB9/source/alps.test/mediatek/platform/mt6592/preloader/src/SecPlat.a(meta.o)
                0x00218818                seclib_brom_meta_mode
 .text.seclib_region_check
                0x00218828       0x58 /alps/mprelease/MPload/ALPS.JB9.MP.V1.4_WINGTECH92_WET_JB9/source/alps.test/mediatek/platform/mt6592/preloader/src/SecPlat.a(seclib_region.o)
                0x00218828                seclib_region_check
 .text.SEJ_V3_Init
                0x00218880      0x10c /alps/mprelease/MPload/ALPS.JB9.MP.V1.4_WINGTECH92_WET_JB9/source/alps.test/mediatek/platform/mt6592/preloader/src/SecPlat.a(sej_hk.o)
                0x00218880                SEJ_V3_Init
 .text.SEJ_V3_Run
                0x0021898c       0x84 /alps/mprelease/MPload/ALPS.JB9.MP.V1.4_WINGTECH92_WET_JB9/source/alps.test/mediatek/platform/mt6592/preloader/src/SecPlat.a(sej_hk.o)
                0x0021898c                SEJ_V3_Run
 .text.SEJ_V3_Terminate
                0x00218a10       0x38 /alps/mprelease/MPload/ALPS.JB9.MP.V1.4_WINGTECH92_WET_JB9/source/alps.test/mediatek/platform/mt6592/preloader/src/SecPlat.a(sej_hk.o)
                0x00218a10                SEJ_V3_Terminate
 .text.sej_set_clk
                0x00218a48        0x8 /alps/mprelease/MPload/ALPS.JB9.MP.V1.4_WINGTECH92_WET_JB9/source/alps.test/mediatek/platform/mt6592/preloader/src/SecPlat.a(sej_sk.o)
                0x00218a48                sej_set_clk
 .text.sej_set_iv
                0x00218a50       0x24 /alps/mprelease/MPload/ALPS.JB9.MP.V1.4_WINGTECH92_WET_JB9/source/alps.test/mediatek/platform/mt6592/preloader/src/SecPlat.a(sej_sk.o)
                0x00218a50                sej_set_iv
 .text.sej_set_mode
                0x00218a74       0x6c /alps/mprelease/MPload/ALPS.JB9.MP.V1.4_WINGTECH92_WET_JB9/source/alps.test/mediatek/platform/mt6592/preloader/src/SecPlat.a(sej_sk.o)
                0x00218a74                sej_set_mode
 .text.sej_set_key
                0x00218ae0      0x10c /alps/mprelease/MPload/ALPS.JB9.MP.V1.4_WINGTECH92_WET_JB9/source/alps.test/mediatek/platform/mt6592/preloader/src/SecPlat.a(sej_sk.o)
                0x00218ae0                sej_set_key
 .text.sej_do_aes
                0x00218bec      0x10c /alps/mprelease/MPload/ALPS.JB9.MP.V1.4_WINGTECH92_WET_JB9/source/alps.test/mediatek/platform/mt6592/preloader/src/SecPlat.a(sej_sk.o)
                0x00218bec                sej_do_aes
 .text.sej_deinit
                0x00218cf8       0x1c /alps/mprelease/MPload/ALPS.JB9.MP.V1.4_WINGTECH92_WET_JB9/source/alps.test/mediatek/platform/mt6592/preloader/src/SecPlat.a(sej_sk.o)
                0x00218cf8                sej_deinit
 .text.sej_init
                0xffffffffffffffff      0x120 /alps/mprelease/MPload/ALPS.JB9.MP.V1.4_WINGTECH92_WET_JB9/source/alps.test/mediatek/platform/mt6592/preloader/src/SecPlat.a(sej_sk.o)
                0x00218d14                sej_init

.rodata         0x00218ee4     0x4cf0
 .rodata        0x00218ee4        0x4 /alps/mprelease/MPload/ALPS.JB9.MP.V1.4_WINGTECH92_WET_JB9/source/alps.test/mediatek/preloader/out/download.o
 .rodata        0x00218ee8       0x10 /alps/mprelease/MPload/ALPS.JB9.MP.V1.4_WINGTECH92_WET_JB9/source/alps.test/mediatek/preloader/out/msdc.o
 ** merge strings
                0x00218ef8     0x4b43
 .rodata.msdc_pupd_spec
                0x0021da3b       0x36 /alps/mprelease/MPload/ALPS.JB9.MP.V1.4_WINGTECH92_WET_JB9/source/alps.test/mediatek/preloader/out/gpio.o
 .rodata.kpad_pupd_spec
                0x0021da71       0x12 /alps/mprelease/MPload/ALPS.JB9.MP.V1.4_WINGTECH92_WET_JB9/source/alps.test/mediatek/preloader/out/gpio.o
 .rodata.__FUNCTION__.1740
                0x0021da83        0xa /alps/mprelease/MPload/ALPS.JB9.MP.V1.4_WINGTECH92_WET_JB9/source/alps.test/mediatek/preloader/out/i2c.o
 .rodata.tran_mant
                0x0021da8d       0x10 /alps/mprelease/MPload/ALPS.JB9.MP.V1.4_WINGTECH92_WET_JB9/source/alps.test/mediatek/preloader/out/mmc_core.o
 .rodata.tran_exp
                0x0021daa0       0x20 /alps/mprelease/MPload/ALPS.JB9.MP.V1.4_WINGTECH92_WET_JB9/source/alps.test/mediatek/preloader/out/mmc_core.o
 .rodata.msdc_rsp
                0x0021dac0       0x24 /alps/mprelease/MPload/ALPS.JB9.MP.V1.4_WINGTECH92_WET_JB9/source/alps.test/mediatek/preloader/out/msdc.o
 .rodata.__func__.1738
                0x0021dae4        0x8 /alps/mprelease/MPload/ALPS.JB9.MP.V1.4_WINGTECH92_WET_JB9/source/alps.test/mediatek/preloader/out/partition.o
 .rodata.sys_stack_sz
                0x0021daec        0x4 /alps/mprelease/MPload/ALPS.JB9.MP.V1.4_WINGTECH92_WET_JB9/source/alps.test/mediatek/preloader/out/platform.o
                0x0021daec                sys_stack_sz
 .rodata.__func__.1339
                0x0021daf0       0x12 /alps/mprelease/MPload/ALPS.JB9.MP.V1.4_WINGTECH92_WET_JB9/source/alps.test/mediatek/preloader/out/pmic_6333.o
 .rodata.__func__.1346
                0x0021db02       0x11 /alps/mprelease/MPload/ALPS.JB9.MP.V1.4_WINGTECH92_WET_JB9/source/alps.test/mediatek/preloader/out/pmic_6333.o
 .rodata.__FUNCTION__.1198
                0x0021db13       0x16 /alps/mprelease/MPload/ALPS.JB9.MP.V1.4_WINGTECH92_WET_JB9/source/alps.test/mediatek/preloader/out/pmic_wrap_init.o
 .rodata.__FUNCTION__.1207
                0x0021db29        0xb /alps/mprelease/MPload/ALPS.JB9.MP.V1.4_WINGTECH92_WET_JB9/source/alps.test/mediatek/preloader/out/pmic_wrap_init.o
 .rodata.__FUNCTION__.1240
                0x0021db34       0x15 /alps/mprelease/MPload/ALPS.JB9.MP.V1.4_WINGTECH92_WET_JB9/source/alps.test/mediatek/preloader/out/pmic_wrap_init.o
 .rodata.digits.1240
                0x0021db49        0xb /alps/mprelease/MPload/ALPS.JB9.MP.V1.4_WINGTECH92_WET_JB9/source/alps.test/mediatek/preloader/out/stdlib.o
 .rodata.__func__.1325
                0x0021db54        0xd /alps/mprelease/MPload/ALPS.JB9.MP.V1.4_WINGTECH92_WET_JB9/source/alps.test/mediatek/preloader/out/wdt.o
 .rodata.padding
                0x0021db61       0x40 /alps/mprelease/MPload/ALPS.JB9.MP.V1.4_WINGTECH92_WET_JB9/source/alps.test/mediatek/platform/mt6592/preloader/src/security/auth/DaVerifyLib.a(sha1.o)
 .rodata.g_AC_FIXED_PATTERN
                0x0021dba4       0x30 /alps/mprelease/MPload/ALPS.JB9.MP.V1.4_WINGTECH92_WET_JB9/source/alps.test/mediatek/platform/mt6592/preloader/src/SecPlat.a(sej_hk.o)

.data           0x0021dbd8      0xaec
 .data          0x0021dbd8       0x1c /alps/mprelease/MPload/ALPS.JB9.MP.V1.4_WINGTECH92_WET_JB9/source/alps.test/mediatek/preloader/out/dramc_dle_cal.o
 .data          0x0021dbf4       0x1c /alps/mprelease/MPload/ALPS.JB9.MP.V1.4_WINGTECH92_WET_JB9/source/alps.test/mediatek/preloader/out/dramc_dqs_gw.o
 .data          0x0021dc10        0x8 /alps/mprelease/MPload/ALPS.JB9.MP.V1.4_WINGTECH92_WET_JB9/source/alps.test/mediatek/preloader/out/handshake_uart.o
 .data          0x0021dc18        0x8 /alps/mprelease/MPload/ALPS.JB9.MP.V1.4_WINGTECH92_WET_JB9/source/alps.test/mediatek/preloader/out/handshake_usb.o
 .data.msdc_cap
                0x0021dc20       0x10 /alps/mprelease/MPload/ALPS.JB9.MP.V1.4_WINGTECH92_WET_JB9/source/alps.test/mediatek/preloader/out/cust_msdc.o
                0x0021dc20                msdc_cap
 .data.num_of_emi_records
                0x0021dc30        0x4 /alps/mprelease/MPload/ALPS.JB9.MP.V1.4_WINGTECH92_WET_JB9/source/alps.test/mediatek/preloader/out/custom_emi.o
                0x0021dc30                num_of_emi_records
 .data.emi_settings
                0x0021dc34      0x178 /alps/mprelease/MPload/ALPS.JB9.MP.V1.4_WINGTECH92_WET_JB9/source/alps.test/mediatek/preloader/out/custom_emi.o
                0x0021dc34                emi_settings
 .data.rel.local.platform_parts
                0x0021ddb0      0x500 /alps/mprelease/MPload/ALPS.JB9.MP.V1.4_WINGTECH92_WET_JB9/source/alps.test/mediatek/preloader/out/cust_part.o
 .data.Bit_DQO_Mapping
                0x0021e2b0       0x20 /alps/mprelease/MPload/ALPS.JB9.MP.V1.4_WINGTECH92_WET_JB9/source/alps.test/mediatek/preloader/out/dramc_calib.o
                0x0021e2b0                Bit_DQO_Mapping
 .data.DQM_Mapping
                0x0021e2d0        0x4 /alps/mprelease/MPload/ALPS.JB9.MP.V1.4_WINGTECH92_WET_JB9/source/alps.test/mediatek/preloader/out/dramc_calib.o
                0x0021e2d0                DQM_Mapping
 .data.DQSO_Mapping
                0x0021e2d4        0x4 /alps/mprelease/MPload/ALPS.JB9.MP.V1.4_WINGTECH92_WET_JB9/source/alps.test/mediatek/preloader/out/dramc_calib.o
                0x0021e2d4                DQSO_Mapping
 .data.rel.local.opt_dle_value
                0x0021e2d8        0x4 /alps/mprelease/MPload/ALPS.JB9.MP.V1.4_WINGTECH92_WET_JB9/source/alps.test/mediatek/preloader/out/dramc_dle_cal.o
                0x0021e2d8                opt_dle_value
 .data.rel.local.dle_tbl
                0x0021e2dc       0x28 /alps/mprelease/MPload/ALPS.JB9.MP.V1.4_WINGTECH92_WET_JB9/source/alps.test/mediatek/preloader/out/dramc_dle_cal.o
                0x0021e2dc                dle_tbl
 .data.rel.dle_test_cases
                0x0021e304       0x10 /alps/mprelease/MPload/ALPS.JB9.MP.V1.4_WINGTECH92_WET_JB9/source/alps.test/mediatek/preloader/out/dramc_dle_cal.o
                0x0021e304                dle_test_cases
 .data.rel.dle_tuning_factors
                0x0021e314       0x14 /alps/mprelease/MPload/ALPS.JB9.MP.V1.4_WINGTECH92_WET_JB9/source/alps.test/mediatek/preloader/out/dramc_dle_cal.o
                0x0021e314                dle_tuning_factors
 .data.rel.local.dqsi_gw_dly_fine_tbl
                0x0021e328       0x44 /alps/mprelease/MPload/ALPS.JB9.MP.V1.4_WINGTECH92_WET_JB9/source/alps.test/mediatek/preloader/out/dramc_dqs_gw.o
                0x0021e328                dqsi_gw_dly_fine_tbl
 .data.rel.local.dqsi_gw_dly_coarse_tbl
                0x0021e36c       0x64 /alps/mprelease/MPload/ALPS.JB9.MP.V1.4_WINGTECH92_WET_JB9/source/alps.test/mediatek/preloader/out/dramc_dqs_gw.o
                0x0021e36c                dqsi_gw_dly_coarse_tbl
 .data.rel.dqs_gw_test_cases_1
                0x0021e3d0       0x10 /alps/mprelease/MPload/ALPS.JB9.MP.V1.4_WINGTECH92_WET_JB9/source/alps.test/mediatek/preloader/out/dramc_dqs_gw.o
                0x0021e3d0                dqs_gw_test_cases_1
 .data.rel.dqs_gw_tuning_factors
                0x0021e3e0       0x28 /alps/mprelease/MPload/ALPS.JB9.MP.V1.4_WINGTECH92_WET_JB9/source/alps.test/mediatek/preloader/out/dramc_dqs_gw.o
                0x0021e3e0                dqs_gw_tuning_factors
 .data.emi_setting_default_lpddr2
                0x0021e408       0xbc /alps/mprelease/MPload/ALPS.JB9.MP.V1.4_WINGTECH92_WET_JB9/source/alps.test/mediatek/preloader/out/emi.o
                0x0021e408                emi_setting_default_lpddr2
 .data.emi_setting_default_lpddr3
                0x0021e4c4       0xbc /alps/mprelease/MPload/ALPS.JB9.MP.V1.4_WINGTECH92_WET_JB9/source/alps.test/mediatek/preloader/out/emi.o
                0x0021e4c4                emi_setting_default_lpddr3
 .data.mdl_number.1450
                0x0021e580        0x4 /alps/mprelease/MPload/ALPS.JB9.MP.V1.4_WINGTECH92_WET_JB9/source/alps.test/mediatek/preloader/out/emi.o
 .data.gpio_dat
                0x0021e584        0x4 /alps/mprelease/MPload/ALPS.JB9.MP.V1.4_WINGTECH92_WET_JB9/source/alps.test/mediatek/preloader/out/gpio.o
 .data.g_log_drambuf
                0x0021e588        0x4 /alps/mprelease/MPload/ALPS.JB9.MP.V1.4_WINGTECH92_WET_JB9/source/alps.test/mediatek/preloader/out/print.o
 .data.g_uart   0x0021e58c        0x4 /alps/mprelease/MPload/ALPS.JB9.MP.V1.4_WINGTECH92_WET_JB9/source/alps.test/mediatek/preloader/out/uart.o
                0x0021e58c                g_uart
 .data.g_line_coding
                0x0021e590        0x7 /alps/mprelease/MPload/ALPS.JB9.MP.V1.4_WINGTECH92_WET_JB9/source/alps.test/mediatek/preloader/out/usbd.o
 .data.fifo_addr
                0x0021e598        0x4 /alps/mprelease/MPload/ALPS.JB9.MP.V1.4_WINGTECH92_WET_JB9/source/alps.test/mediatek/preloader/out/usbd.o
                0x0021e598                fifo_addr
 .data.rel.local.fs_data_ep_descriptor_ptrs
                0x0021e59c        0x8 /alps/mprelease/MPload/ALPS.JB9.MP.V1.4_WINGTECH92_WET_JB9/source/alps.test/mediatek/preloader/out/usbtty.o
 .data.rel.local.usbtty_string_table
                0x0021e5a4       0x18 /alps/mprelease/MPload/ALPS.JB9.MP.V1.4_WINGTECH92_WET_JB9/source/alps.test/mediatek/preloader/out/usbtty.o
 .data.header_function_descriptor
                0x0021e5bc        0x5 /alps/mprelease/MPload/ALPS.JB9.MP.V1.4_WINGTECH92_WET_JB9/source/alps.test/mediatek/preloader/out/usbtty.o
 .data.rel.local.fs_comm_ep_descriptor_ptrs
                0x0021e5c4        0x4 /alps/mprelease/MPload/ALPS.JB9.MP.V1.4_WINGTECH92_WET_JB9/source/alps.test/mediatek/preloader/out/usbtty.o
 .data.rel.local.hs_comm_ep_descriptor_ptrs
                0x0021e5c8        0x4 /alps/mprelease/MPload/ALPS.JB9.MP.V1.4_WINGTECH92_WET_JB9/source/alps.test/mediatek/preloader/out/usbtty.o
 .data.call_management_descriptor
                0x0021e5cc        0x5 /alps/mprelease/MPload/ALPS.JB9.MP.V1.4_WINGTECH92_WET_JB9/source/alps.test/mediatek/preloader/out/usbtty.o
                0x0021e5cc                call_management_descriptor
 .data.device_qualifier_descriptor
                0x0021e5d1        0x9 /alps/mprelease/MPload/ALPS.JB9.MP.V1.4_WINGTECH92_WET_JB9/source/alps.test/mediatek/preloader/out/usbtty.o
 .data.rel.local.hs_data_ep_descriptor_ptrs
                0x0021e5dc        0x8 /alps/mprelease/MPload/ALPS.JB9.MP.V1.4_WINGTECH92_WET_JB9/source/alps.test/mediatek/preloader/out/usbtty.o
 .data.language
                0x0021e5e4        0x4 /alps/mprelease/MPload/ALPS.JB9.MP.V1.4_WINGTECH92_WET_JB9/source/alps.test/mediatek/preloader/out/usbtty.o
 .data.hs_ep_descriptors
                0x0021e5e8       0x15 /alps/mprelease/MPload/ALPS.JB9.MP.V1.4_WINGTECH92_WET_JB9/source/alps.test/mediatek/preloader/out/usbtty.o
 .data.device_descriptor
                0x0021e5fd       0x12 /alps/mprelease/MPload/ALPS.JB9.MP.V1.4_WINGTECH92_WET_JB9/source/alps.test/mediatek/preloader/out/usbtty.o
 .data.abstract_control_descriptor
                0x0021e60f        0x4 /alps/mprelease/MPload/ALPS.JB9.MP.V1.4_WINGTECH92_WET_JB9/source/alps.test/mediatek/preloader/out/usbtty.o
 .data.fs_ep_descriptors
                0x0021e613       0x15 /alps/mprelease/MPload/ALPS.JB9.MP.V1.4_WINGTECH92_WET_JB9/source/alps.test/mediatek/preloader/out/usbtty.o
 .data.interface_descriptors
                0x0021e628       0x12 /alps/mprelease/MPload/ALPS.JB9.MP.V1.4_WINGTECH92_WET_JB9/source/alps.test/mediatek/preloader/out/usbtty.o
 .data.config_descriptors
                0x0021e63a        0x9 /alps/mprelease/MPload/ALPS.JB9.MP.V1.4_WINGTECH92_WET_JB9/source/alps.test/mediatek/preloader/out/usbtty.o
 .data.union_function_descriptor
                0x0021e643        0x5 /alps/mprelease/MPload/ALPS.JB9.MP.V1.4_WINGTECH92_WET_JB9/source/alps.test/mediatek/preloader/out/usbtty.o
                0x0021e643                union_function_descriptor
 .data.sec_crypto_sig_size
                0x0021e648       0x10 /alps/mprelease/MPload/ALPS.JB9.MP.V1.4_WINGTECH92_WET_JB9/source/alps.test/mediatek/platform/mt6592/preloader/src/SecLib.a(seclib_img_verify.o)
                0x0021e648                sec_crypto_sig_size
 .data.sec_crypto_hash_size
                0x0021e658       0x14 /alps/mprelease/MPload/ALPS.JB9.MP.V1.4_WINGTECH92_WET_JB9/source/alps.test/mediatek/platform/mt6592/preloader/src/SecLib.a(seclib_img_verify.o)
                0x0021e658                sec_crypto_hash_size
 .data.g_hdr_ver
                0x0021e66c        0x4 /alps/mprelease/MPload/ALPS.JB9.MP.V1.4_WINGTECH92_WET_JB9/source/alps.test/mediatek/platform/mt6592/preloader/src/SecLib.a(seclib.o)
                0x0021e66c                g_hdr_ver
 .data.g_devinfo_data_addr
                0x0021e670       0x54 /alps/mprelease/MPload/ALPS.JB9.MP.V1.4_WINGTECH92_WET_JB9/source/alps.test/mediatek/platform/mt6592/preloader/src/SecPlat.a(efuse.o)
                0x0021e670                g_devinfo_data_addr

.got            0x0021e6c4      0x17c
 ** GOT         0x0021e6c4      0x170
 ** GOT PLT     0x0021e834        0xc
